GAS LISTING /tmp/ccTfuPTI.s 			page 1


   1              		.file	"kdtree_index_nonrec.cpp"
   2              		.text
   3              	.Ltext0:
   4              		.section	.text._ZNK5flann13KNNResultSet2IfE9worstDistEv,"axG",@progbits,_ZNK5flann13KNNResultSet2I
   5              		.align 2
   6              		.weak	_ZNK5flann13KNNResultSet2IfE9worstDistEv
   7              		.type	_ZNK5flann13KNNResultSet2IfE9worstDistEv, @function
   8              	_ZNK5flann13KNNResultSet2IfE9worstDistEv:
   9              	.LFB4628:
  10              		.file 1 "/home/junholee/git/flann/src/cpp/flann/util/result_set.h"
   1:/home/junholee/git/flann/src/cpp/flann/util/result_set.h **** /***********************************************************************
   2:/home/junholee/git/flann/src/cpp/flann/util/result_set.h ****  * Software License Agreement (BSD License)
   3:/home/junholee/git/flann/src/cpp/flann/util/result_set.h ****  *
   4:/home/junholee/git/flann/src/cpp/flann/util/result_set.h ****  * Copyright 2008-2009  Marius Muja (mariusm@cs.ubc.ca). All rights reserved.
   5:/home/junholee/git/flann/src/cpp/flann/util/result_set.h ****  * Copyright 2008-2009  David G. Lowe (lowe@cs.ubc.ca). All rights reserved.
   6:/home/junholee/git/flann/src/cpp/flann/util/result_set.h ****  *
   7:/home/junholee/git/flann/src/cpp/flann/util/result_set.h ****  * THE BSD LICENSE
   8:/home/junholee/git/flann/src/cpp/flann/util/result_set.h ****  *
   9:/home/junholee/git/flann/src/cpp/flann/util/result_set.h ****  * Redistribution and use in source and binary forms, with or without
  10:/home/junholee/git/flann/src/cpp/flann/util/result_set.h ****  * modification, are permitted provided that the following conditions
  11:/home/junholee/git/flann/src/cpp/flann/util/result_set.h ****  * are met:
  12:/home/junholee/git/flann/src/cpp/flann/util/result_set.h ****  *
  13:/home/junholee/git/flann/src/cpp/flann/util/result_set.h ****  * 1. Redistributions of source code must retain the above copyright
  14:/home/junholee/git/flann/src/cpp/flann/util/result_set.h ****  *    notice, this list of conditions and the following disclaimer.
  15:/home/junholee/git/flann/src/cpp/flann/util/result_set.h ****  * 2. Redistributions in binary form must reproduce the above copyright
  16:/home/junholee/git/flann/src/cpp/flann/util/result_set.h ****  *    notice, this list of conditions and the following disclaimer in the
  17:/home/junholee/git/flann/src/cpp/flann/util/result_set.h ****  *    documentation and/or other materials provided with the distribution.
  18:/home/junholee/git/flann/src/cpp/flann/util/result_set.h ****  *
  19:/home/junholee/git/flann/src/cpp/flann/util/result_set.h ****  * THIS SOFTWARE IS PROVIDED BY THE AUTHOR ``AS IS'' AND ANY EXPRESS OR
  20:/home/junholee/git/flann/src/cpp/flann/util/result_set.h ****  * IMPLIED WARRANTIES, INCLUDING, BUT NOT LIMITED TO, THE IMPLIED WARRANTIES
  21:/home/junholee/git/flann/src/cpp/flann/util/result_set.h ****  * OF MERCHANTABILITY AND FITNESS FOR A PARTICULAR PURPOSE ARE DISCLAIMED.
  22:/home/junholee/git/flann/src/cpp/flann/util/result_set.h ****  * IN NO EVENT SHALL THE AUTHOR BE LIABLE FOR ANY DIRECT, INDIRECT,
  23:/home/junholee/git/flann/src/cpp/flann/util/result_set.h ****  * INCIDENTAL, SPECIAL, EXEMPLARY, OR CONSEQUENTIAL DAMAGES (INCLUDING, BUT
  24:/home/junholee/git/flann/src/cpp/flann/util/result_set.h ****  * NOT LIMITED TO, PROCUREMENT OF SUBSTITUTE GOODS OR SERVICES; LOSS OF USE,
  25:/home/junholee/git/flann/src/cpp/flann/util/result_set.h ****  * DATA, OR PROFITS; OR BUSINESS INTERRUPTION) HOWEVER CAUSED AND ON ANY
  26:/home/junholee/git/flann/src/cpp/flann/util/result_set.h ****  * THEORY OF LIABILITY, WHETHER IN CONTRACT, STRICT LIABILITY, OR TORT
  27:/home/junholee/git/flann/src/cpp/flann/util/result_set.h ****  * (INCLUDING NEGLIGENCE OR OTHERWISE) ARISING IN ANY WAY OUT OF THE USE OF
  28:/home/junholee/git/flann/src/cpp/flann/util/result_set.h ****  * THIS SOFTWARE, EVEN IF ADVISED OF THE POSSIBILITY OF SUCH DAMAGE.
  29:/home/junholee/git/flann/src/cpp/flann/util/result_set.h ****  *************************************************************************/
  30:/home/junholee/git/flann/src/cpp/flann/util/result_set.h **** 
  31:/home/junholee/git/flann/src/cpp/flann/util/result_set.h **** #ifndef FLANN_RESULTSET_H
  32:/home/junholee/git/flann/src/cpp/flann/util/result_set.h **** #define FLANN_RESULTSET_H
  33:/home/junholee/git/flann/src/cpp/flann/util/result_set.h **** 
  34:/home/junholee/git/flann/src/cpp/flann/util/result_set.h **** #include <algorithm>
  35:/home/junholee/git/flann/src/cpp/flann/util/result_set.h **** #include <cstring>
  36:/home/junholee/git/flann/src/cpp/flann/util/result_set.h **** #include <iostream>
  37:/home/junholee/git/flann/src/cpp/flann/util/result_set.h **** #include <limits>
  38:/home/junholee/git/flann/src/cpp/flann/util/result_set.h **** #include <set>
  39:/home/junholee/git/flann/src/cpp/flann/util/result_set.h **** #include <vector>
  40:/home/junholee/git/flann/src/cpp/flann/util/result_set.h **** 
  41:/home/junholee/git/flann/src/cpp/flann/util/result_set.h **** namespace flann
  42:/home/junholee/git/flann/src/cpp/flann/util/result_set.h **** {
  43:/home/junholee/git/flann/src/cpp/flann/util/result_set.h **** 
  44:/home/junholee/git/flann/src/cpp/flann/util/result_set.h **** /* This record represents a branch point when finding neighbors in
  45:/home/junholee/git/flann/src/cpp/flann/util/result_set.h ****     the tree.  It contains a record of the minimum distance to the query
  46:/home/junholee/git/flann/src/cpp/flann/util/result_set.h ****     point, as well as the node at which the search resumes.
  47:/home/junholee/git/flann/src/cpp/flann/util/result_set.h ****  */
GAS LISTING /tmp/ccTfuPTI.s 			page 2


  48:/home/junholee/git/flann/src/cpp/flann/util/result_set.h **** 
  49:/home/junholee/git/flann/src/cpp/flann/util/result_set.h **** template <typename T, typename DistanceType>
  50:/home/junholee/git/flann/src/cpp/flann/util/result_set.h **** struct BranchStruct
  51:/home/junholee/git/flann/src/cpp/flann/util/result_set.h **** {
  52:/home/junholee/git/flann/src/cpp/flann/util/result_set.h ****     T node;           /* Tree node at which search resumes */
  53:/home/junholee/git/flann/src/cpp/flann/util/result_set.h ****     DistanceType mindist;     /* Minimum distance to query for all nodes below. */
  54:/home/junholee/git/flann/src/cpp/flann/util/result_set.h **** 
  55:/home/junholee/git/flann/src/cpp/flann/util/result_set.h ****     BranchStruct() {}
  56:/home/junholee/git/flann/src/cpp/flann/util/result_set.h ****     BranchStruct(const T& aNode, DistanceType dist) : node(aNode), mindist(dist) {}
  57:/home/junholee/git/flann/src/cpp/flann/util/result_set.h **** 
  58:/home/junholee/git/flann/src/cpp/flann/util/result_set.h ****     bool operator<(const BranchStruct<T, DistanceType>& rhs) const
  59:/home/junholee/git/flann/src/cpp/flann/util/result_set.h ****     {
  60:/home/junholee/git/flann/src/cpp/flann/util/result_set.h ****         return mindist<rhs.mindist;
  61:/home/junholee/git/flann/src/cpp/flann/util/result_set.h ****     }
  62:/home/junholee/git/flann/src/cpp/flann/util/result_set.h **** };
  63:/home/junholee/git/flann/src/cpp/flann/util/result_set.h **** 
  64:/home/junholee/git/flann/src/cpp/flann/util/result_set.h **** 
  65:/home/junholee/git/flann/src/cpp/flann/util/result_set.h **** template <typename DistanceType>
  66:/home/junholee/git/flann/src/cpp/flann/util/result_set.h **** struct DistanceIndex
  67:/home/junholee/git/flann/src/cpp/flann/util/result_set.h **** {
  68:/home/junholee/git/flann/src/cpp/flann/util/result_set.h ****     DistanceIndex(DistanceType dist, size_t index) :
  69:/home/junholee/git/flann/src/cpp/flann/util/result_set.h ****         dist_(dist), index_(index)
  70:/home/junholee/git/flann/src/cpp/flann/util/result_set.h ****     {
  71:/home/junholee/git/flann/src/cpp/flann/util/result_set.h ****     }
  72:/home/junholee/git/flann/src/cpp/flann/util/result_set.h ****     bool operator<(const DistanceIndex& dist_index) const
  73:/home/junholee/git/flann/src/cpp/flann/util/result_set.h ****     {
  74:/home/junholee/git/flann/src/cpp/flann/util/result_set.h ****         return (dist_ < dist_index.dist_) || ((dist_ == dist_index.dist_) && index_ < dist_index.in
  75:/home/junholee/git/flann/src/cpp/flann/util/result_set.h ****     }
  76:/home/junholee/git/flann/src/cpp/flann/util/result_set.h ****     DistanceType dist_;
  77:/home/junholee/git/flann/src/cpp/flann/util/result_set.h ****     size_t index_;
  78:/home/junholee/git/flann/src/cpp/flann/util/result_set.h **** };
  79:/home/junholee/git/flann/src/cpp/flann/util/result_set.h **** 
  80:/home/junholee/git/flann/src/cpp/flann/util/result_set.h **** 
  81:/home/junholee/git/flann/src/cpp/flann/util/result_set.h **** template <typename DistanceType>
  82:/home/junholee/git/flann/src/cpp/flann/util/result_set.h **** class ResultSet
  83:/home/junholee/git/flann/src/cpp/flann/util/result_set.h **** {
  84:/home/junholee/git/flann/src/cpp/flann/util/result_set.h **** public:
  85:/home/junholee/git/flann/src/cpp/flann/util/result_set.h ****     virtual ~ResultSet() {}
  86:/home/junholee/git/flann/src/cpp/flann/util/result_set.h **** 
  87:/home/junholee/git/flann/src/cpp/flann/util/result_set.h ****     virtual bool full() const = 0;
  88:/home/junholee/git/flann/src/cpp/flann/util/result_set.h **** 
  89:/home/junholee/git/flann/src/cpp/flann/util/result_set.h ****     virtual void addPoint(DistanceType dist, size_t index) = 0;
  90:/home/junholee/git/flann/src/cpp/flann/util/result_set.h **** 
  91:/home/junholee/git/flann/src/cpp/flann/util/result_set.h ****     virtual DistanceType worstDist() const = 0;
  92:/home/junholee/git/flann/src/cpp/flann/util/result_set.h **** 
  93:/home/junholee/git/flann/src/cpp/flann/util/result_set.h **** };
  94:/home/junholee/git/flann/src/cpp/flann/util/result_set.h **** 
  95:/home/junholee/git/flann/src/cpp/flann/util/result_set.h **** /**
  96:/home/junholee/git/flann/src/cpp/flann/util/result_set.h ****  * KNNSimpleResultSet does not ensure that the element it holds are unique.
  97:/home/junholee/git/flann/src/cpp/flann/util/result_set.h ****  * Is used in those cases where the nearest neighbour algorithm used does not
  98:/home/junholee/git/flann/src/cpp/flann/util/result_set.h ****  * attempt to insert the same element multiple times.
  99:/home/junholee/git/flann/src/cpp/flann/util/result_set.h ****  */
 100:/home/junholee/git/flann/src/cpp/flann/util/result_set.h **** template <typename DistanceType>
 101:/home/junholee/git/flann/src/cpp/flann/util/result_set.h **** class KNNSimpleResultSet : public ResultSet<DistanceType>
 102:/home/junholee/git/flann/src/cpp/flann/util/result_set.h **** {
 103:/home/junholee/git/flann/src/cpp/flann/util/result_set.h **** public:
 104:/home/junholee/git/flann/src/cpp/flann/util/result_set.h **** 	typedef DistanceIndex<DistanceType> DistIndex;
GAS LISTING /tmp/ccTfuPTI.s 			page 3


 105:/home/junholee/git/flann/src/cpp/flann/util/result_set.h **** 
 106:/home/junholee/git/flann/src/cpp/flann/util/result_set.h **** 	KNNSimpleResultSet(size_t capacity_) :
 107:/home/junholee/git/flann/src/cpp/flann/util/result_set.h ****         capacity_(capacity_)
 108:/home/junholee/git/flann/src/cpp/flann/util/result_set.h ****     {
 109:/home/junholee/git/flann/src/cpp/flann/util/result_set.h **** 		// reserving capacity to prevent memory re-allocations
 110:/home/junholee/git/flann/src/cpp/flann/util/result_set.h **** 		dist_index_.resize(capacity_, DistIndex(std::numeric_limits<DistanceType>::max(),-1));
 111:/home/junholee/git/flann/src/cpp/flann/util/result_set.h ****     	clear();
 112:/home/junholee/git/flann/src/cpp/flann/util/result_set.h ****     }
 113:/home/junholee/git/flann/src/cpp/flann/util/result_set.h **** 
 114:/home/junholee/git/flann/src/cpp/flann/util/result_set.h ****     ~KNNSimpleResultSet()
 115:/home/junholee/git/flann/src/cpp/flann/util/result_set.h ****     {
 116:/home/junholee/git/flann/src/cpp/flann/util/result_set.h ****     }
 117:/home/junholee/git/flann/src/cpp/flann/util/result_set.h **** 
 118:/home/junholee/git/flann/src/cpp/flann/util/result_set.h ****     /**
 119:/home/junholee/git/flann/src/cpp/flann/util/result_set.h ****      * Clears the result set
 120:/home/junholee/git/flann/src/cpp/flann/util/result_set.h ****      */
 121:/home/junholee/git/flann/src/cpp/flann/util/result_set.h ****     void clear()
 122:/home/junholee/git/flann/src/cpp/flann/util/result_set.h ****     {
 123:/home/junholee/git/flann/src/cpp/flann/util/result_set.h ****         worst_distance_ = std::numeric_limits<DistanceType>::max();
 124:/home/junholee/git/flann/src/cpp/flann/util/result_set.h ****         dist_index_[capacity_-1].dist_ = worst_distance_;
 125:/home/junholee/git/flann/src/cpp/flann/util/result_set.h ****         count_ = 0;
 126:/home/junholee/git/flann/src/cpp/flann/util/result_set.h ****     }
 127:/home/junholee/git/flann/src/cpp/flann/util/result_set.h **** 
 128:/home/junholee/git/flann/src/cpp/flann/util/result_set.h ****     /**
 129:/home/junholee/git/flann/src/cpp/flann/util/result_set.h ****      *
 130:/home/junholee/git/flann/src/cpp/flann/util/result_set.h ****      * @return Number of elements in the result set
 131:/home/junholee/git/flann/src/cpp/flann/util/result_set.h ****      */
 132:/home/junholee/git/flann/src/cpp/flann/util/result_set.h ****     size_t size() const
 133:/home/junholee/git/flann/src/cpp/flann/util/result_set.h ****     {
 134:/home/junholee/git/flann/src/cpp/flann/util/result_set.h ****         return count_;
 135:/home/junholee/git/flann/src/cpp/flann/util/result_set.h ****     }
 136:/home/junholee/git/flann/src/cpp/flann/util/result_set.h **** 
 137:/home/junholee/git/flann/src/cpp/flann/util/result_set.h ****     /**
 138:/home/junholee/git/flann/src/cpp/flann/util/result_set.h ****      * Radius search result set always reports full
 139:/home/junholee/git/flann/src/cpp/flann/util/result_set.h ****      * @return
 140:/home/junholee/git/flann/src/cpp/flann/util/result_set.h ****      */
 141:/home/junholee/git/flann/src/cpp/flann/util/result_set.h ****     bool full() const
 142:/home/junholee/git/flann/src/cpp/flann/util/result_set.h ****     {
 143:/home/junholee/git/flann/src/cpp/flann/util/result_set.h ****         return count_==capacity_;
 144:/home/junholee/git/flann/src/cpp/flann/util/result_set.h ****     }
 145:/home/junholee/git/flann/src/cpp/flann/util/result_set.h **** 
 146:/home/junholee/git/flann/src/cpp/flann/util/result_set.h ****     /**
 147:/home/junholee/git/flann/src/cpp/flann/util/result_set.h ****      * Add a point to result set
 148:/home/junholee/git/flann/src/cpp/flann/util/result_set.h ****      * @param dist distance to point
 149:/home/junholee/git/flann/src/cpp/flann/util/result_set.h ****      * @param index index of point
 150:/home/junholee/git/flann/src/cpp/flann/util/result_set.h ****      */
 151:/home/junholee/git/flann/src/cpp/flann/util/result_set.h ****     void addPoint(DistanceType dist, size_t index)
 152:/home/junholee/git/flann/src/cpp/flann/util/result_set.h ****     {
 153:/home/junholee/git/flann/src/cpp/flann/util/result_set.h ****     	if (dist>=worst_distance_) return;
 154:/home/junholee/git/flann/src/cpp/flann/util/result_set.h **** 
 155:/home/junholee/git/flann/src/cpp/flann/util/result_set.h ****         if (count_ < capacity_) ++count_;
 156:/home/junholee/git/flann/src/cpp/flann/util/result_set.h ****         size_t i;
 157:/home/junholee/git/flann/src/cpp/flann/util/result_set.h ****         for (i=count_-1; i>0; --i) {
 158:/home/junholee/git/flann/src/cpp/flann/util/result_set.h **** #ifdef FLANN_FIRST_MATCH
 159:/home/junholee/git/flann/src/cpp/flann/util/result_set.h ****             if ( (dist_index_[i-1].dist_>dist) || ((dist==dist_index_[i-1].dist_)&&(dist_index_[i-1
 160:/home/junholee/git/flann/src/cpp/flann/util/result_set.h **** #else
 161:/home/junholee/git/flann/src/cpp/flann/util/result_set.h ****             if (dist_index_[i-1].dist_>dist)
GAS LISTING /tmp/ccTfuPTI.s 			page 4


 162:/home/junholee/git/flann/src/cpp/flann/util/result_set.h **** #endif
 163:/home/junholee/git/flann/src/cpp/flann/util/result_set.h ****             {
 164:/home/junholee/git/flann/src/cpp/flann/util/result_set.h ****             	dist_index_[i] = dist_index_[i-1];
 165:/home/junholee/git/flann/src/cpp/flann/util/result_set.h ****             }
 166:/home/junholee/git/flann/src/cpp/flann/util/result_set.h ****             else break;
 167:/home/junholee/git/flann/src/cpp/flann/util/result_set.h ****         }
 168:/home/junholee/git/flann/src/cpp/flann/util/result_set.h ****         dist_index_[i].dist_ = dist;
 169:/home/junholee/git/flann/src/cpp/flann/util/result_set.h ****         dist_index_[i].index_ = index;
 170:/home/junholee/git/flann/src/cpp/flann/util/result_set.h ****         worst_distance_ = dist_index_[capacity_-1].dist_;
 171:/home/junholee/git/flann/src/cpp/flann/util/result_set.h ****     }
 172:/home/junholee/git/flann/src/cpp/flann/util/result_set.h **** 
 173:/home/junholee/git/flann/src/cpp/flann/util/result_set.h ****     /**
 174:/home/junholee/git/flann/src/cpp/flann/util/result_set.h ****      * Copy indices and distances to output buffers
 175:/home/junholee/git/flann/src/cpp/flann/util/result_set.h ****      * @param indices
 176:/home/junholee/git/flann/src/cpp/flann/util/result_set.h ****      * @param dists
 177:/home/junholee/git/flann/src/cpp/flann/util/result_set.h ****      * @param num_elements Number of elements to copy
 178:/home/junholee/git/flann/src/cpp/flann/util/result_set.h ****      * @param sorted Indicates if results should be sorted
 179:/home/junholee/git/flann/src/cpp/flann/util/result_set.h ****      */
 180:/home/junholee/git/flann/src/cpp/flann/util/result_set.h ****     void copy(size_t* indices, DistanceType* dists, size_t num_elements, bool sorted = true)
 181:/home/junholee/git/flann/src/cpp/flann/util/result_set.h ****     {
 182:/home/junholee/git/flann/src/cpp/flann/util/result_set.h ****     	size_t n = std::min(count_, num_elements);
 183:/home/junholee/git/flann/src/cpp/flann/util/result_set.h ****     	for (size_t i=0; i<n; ++i) {
 184:/home/junholee/git/flann/src/cpp/flann/util/result_set.h ****     		*indices++ = dist_index_[i].index_;
 185:/home/junholee/git/flann/src/cpp/flann/util/result_set.h ****     		*dists++ = dist_index_[i].dist_;
 186:/home/junholee/git/flann/src/cpp/flann/util/result_set.h ****     	}
 187:/home/junholee/git/flann/src/cpp/flann/util/result_set.h ****     }
 188:/home/junholee/git/flann/src/cpp/flann/util/result_set.h **** 
 189:/home/junholee/git/flann/src/cpp/flann/util/result_set.h ****     DistanceType worstDist() const
 190:/home/junholee/git/flann/src/cpp/flann/util/result_set.h ****     {
 191:/home/junholee/git/flann/src/cpp/flann/util/result_set.h ****     	return worst_distance_;
 192:/home/junholee/git/flann/src/cpp/flann/util/result_set.h ****     }
 193:/home/junholee/git/flann/src/cpp/flann/util/result_set.h **** 
 194:/home/junholee/git/flann/src/cpp/flann/util/result_set.h **** private:
 195:/home/junholee/git/flann/src/cpp/flann/util/result_set.h ****     size_t capacity_;
 196:/home/junholee/git/flann/src/cpp/flann/util/result_set.h ****     size_t count_;
 197:/home/junholee/git/flann/src/cpp/flann/util/result_set.h ****     DistanceType worst_distance_;
 198:/home/junholee/git/flann/src/cpp/flann/util/result_set.h ****     std::vector<DistIndex> dist_index_;
 199:/home/junholee/git/flann/src/cpp/flann/util/result_set.h **** };
 200:/home/junholee/git/flann/src/cpp/flann/util/result_set.h **** 
 201:/home/junholee/git/flann/src/cpp/flann/util/result_set.h **** /**
 202:/home/junholee/git/flann/src/cpp/flann/util/result_set.h ****  * K-Nearest neighbour result set. Ensures that the elements inserted are unique
 203:/home/junholee/git/flann/src/cpp/flann/util/result_set.h ****  */
 204:/home/junholee/git/flann/src/cpp/flann/util/result_set.h **** template <typename DistanceType>
 205:/home/junholee/git/flann/src/cpp/flann/util/result_set.h **** class KNNResultSet : public ResultSet<DistanceType>
 206:/home/junholee/git/flann/src/cpp/flann/util/result_set.h **** {
 207:/home/junholee/git/flann/src/cpp/flann/util/result_set.h **** public:
 208:/home/junholee/git/flann/src/cpp/flann/util/result_set.h **** 	typedef DistanceIndex<DistanceType> DistIndex;
 209:/home/junholee/git/flann/src/cpp/flann/util/result_set.h **** 
 210:/home/junholee/git/flann/src/cpp/flann/util/result_set.h ****     KNNResultSet(int capacity) : capacity_(capacity)
 211:/home/junholee/git/flann/src/cpp/flann/util/result_set.h ****     {
 212:/home/junholee/git/flann/src/cpp/flann/util/result_set.h **** 		// reserving capacity to prevent memory re-allocations
 213:/home/junholee/git/flann/src/cpp/flann/util/result_set.h **** 		dist_index_.resize(capacity_, DistIndex(std::numeric_limits<DistanceType>::max(),-1));
 214:/home/junholee/git/flann/src/cpp/flann/util/result_set.h ****     	clear();
 215:/home/junholee/git/flann/src/cpp/flann/util/result_set.h ****     }
 216:/home/junholee/git/flann/src/cpp/flann/util/result_set.h **** 
 217:/home/junholee/git/flann/src/cpp/flann/util/result_set.h ****     ~KNNResultSet()
 218:/home/junholee/git/flann/src/cpp/flann/util/result_set.h ****     {
GAS LISTING /tmp/ccTfuPTI.s 			page 5


 219:/home/junholee/git/flann/src/cpp/flann/util/result_set.h **** 
 220:/home/junholee/git/flann/src/cpp/flann/util/result_set.h ****     }
 221:/home/junholee/git/flann/src/cpp/flann/util/result_set.h **** 
 222:/home/junholee/git/flann/src/cpp/flann/util/result_set.h ****     /**
 223:/home/junholee/git/flann/src/cpp/flann/util/result_set.h ****      * Clears the result set
 224:/home/junholee/git/flann/src/cpp/flann/util/result_set.h ****      */
 225:/home/junholee/git/flann/src/cpp/flann/util/result_set.h ****     void clear()
 226:/home/junholee/git/flann/src/cpp/flann/util/result_set.h ****     {
 227:/home/junholee/git/flann/src/cpp/flann/util/result_set.h ****         worst_distance_ = std::numeric_limits<DistanceType>::max();
 228:/home/junholee/git/flann/src/cpp/flann/util/result_set.h ****         dist_index_[capacity_-1].dist_ = worst_distance_;
 229:/home/junholee/git/flann/src/cpp/flann/util/result_set.h ****         count_ = 0;
 230:/home/junholee/git/flann/src/cpp/flann/util/result_set.h ****     }
 231:/home/junholee/git/flann/src/cpp/flann/util/result_set.h **** 
 232:/home/junholee/git/flann/src/cpp/flann/util/result_set.h ****     size_t size() const
 233:/home/junholee/git/flann/src/cpp/flann/util/result_set.h ****     {
 234:/home/junholee/git/flann/src/cpp/flann/util/result_set.h ****         return count_;
 235:/home/junholee/git/flann/src/cpp/flann/util/result_set.h ****     }
 236:/home/junholee/git/flann/src/cpp/flann/util/result_set.h **** 
 237:/home/junholee/git/flann/src/cpp/flann/util/result_set.h ****     bool full() const
 238:/home/junholee/git/flann/src/cpp/flann/util/result_set.h ****     {
 239:/home/junholee/git/flann/src/cpp/flann/util/result_set.h ****         return count_ == capacity_;
 240:/home/junholee/git/flann/src/cpp/flann/util/result_set.h ****     }
 241:/home/junholee/git/flann/src/cpp/flann/util/result_set.h **** 
 242:/home/junholee/git/flann/src/cpp/flann/util/result_set.h **** 
 243:/home/junholee/git/flann/src/cpp/flann/util/result_set.h ****     void addPoint(DistanceType dist, size_t index)
 244:/home/junholee/git/flann/src/cpp/flann/util/result_set.h ****     {
 245:/home/junholee/git/flann/src/cpp/flann/util/result_set.h ****         if (dist >= worst_distance_) return;
 246:/home/junholee/git/flann/src/cpp/flann/util/result_set.h ****         size_t i;
 247:/home/junholee/git/flann/src/cpp/flann/util/result_set.h ****         for (i = count_; i > 0; --i) {
 248:/home/junholee/git/flann/src/cpp/flann/util/result_set.h **** #ifdef FLANN_FIRST_MATCH
 249:/home/junholee/git/flann/src/cpp/flann/util/result_set.h ****             if ( (dist_index_[i-1].dist_<=dist) && ((dist!=dist_index_[i-1].dist_)||(dist_index_[i-
 250:/home/junholee/git/flann/src/cpp/flann/util/result_set.h **** #else
 251:/home/junholee/git/flann/src/cpp/flann/util/result_set.h ****             if (dist_index_[i-1].dist_<=dist)
 252:/home/junholee/git/flann/src/cpp/flann/util/result_set.h **** #endif
 253:/home/junholee/git/flann/src/cpp/flann/util/result_set.h ****             {
 254:/home/junholee/git/flann/src/cpp/flann/util/result_set.h ****                 // Check for duplicate indices
 255:/home/junholee/git/flann/src/cpp/flann/util/result_set.h ****                 for (size_t j = i - 1; dist_index_[j].dist_ == dist && j--;) {
 256:/home/junholee/git/flann/src/cpp/flann/util/result_set.h ****                     if (dist_index_[j].index_ == index) {
 257:/home/junholee/git/flann/src/cpp/flann/util/result_set.h ****                         return;
 258:/home/junholee/git/flann/src/cpp/flann/util/result_set.h ****                     }
 259:/home/junholee/git/flann/src/cpp/flann/util/result_set.h ****                 }
 260:/home/junholee/git/flann/src/cpp/flann/util/result_set.h ****                 break;
 261:/home/junholee/git/flann/src/cpp/flann/util/result_set.h ****             }
 262:/home/junholee/git/flann/src/cpp/flann/util/result_set.h ****         }
 263:/home/junholee/git/flann/src/cpp/flann/util/result_set.h ****         if (count_ < capacity_) ++count_;
 264:/home/junholee/git/flann/src/cpp/flann/util/result_set.h ****         for (size_t j = count_-1; j > i; --j) {
 265:/home/junholee/git/flann/src/cpp/flann/util/result_set.h ****             dist_index_[j] = dist_index_[j-1];
 266:/home/junholee/git/flann/src/cpp/flann/util/result_set.h ****         }
 267:/home/junholee/git/flann/src/cpp/flann/util/result_set.h ****         dist_index_[i].dist_ = dist;
 268:/home/junholee/git/flann/src/cpp/flann/util/result_set.h ****         dist_index_[i].index_ = index;
 269:/home/junholee/git/flann/src/cpp/flann/util/result_set.h ****         worst_distance_ = dist_index_[capacity_-1].dist_;
 270:/home/junholee/git/flann/src/cpp/flann/util/result_set.h ****     }
 271:/home/junholee/git/flann/src/cpp/flann/util/result_set.h **** 
 272:/home/junholee/git/flann/src/cpp/flann/util/result_set.h ****     /**
 273:/home/junholee/git/flann/src/cpp/flann/util/result_set.h ****      * Copy indices and distances to output buffers
 274:/home/junholee/git/flann/src/cpp/flann/util/result_set.h ****      * @param indices
 275:/home/junholee/git/flann/src/cpp/flann/util/result_set.h ****      * @param dists
GAS LISTING /tmp/ccTfuPTI.s 			page 6


 276:/home/junholee/git/flann/src/cpp/flann/util/result_set.h ****      * @param num_elements Number of elements to copy
 277:/home/junholee/git/flann/src/cpp/flann/util/result_set.h ****      * @param sorted Indicates if results should be sorted
 278:/home/junholee/git/flann/src/cpp/flann/util/result_set.h ****      */
 279:/home/junholee/git/flann/src/cpp/flann/util/result_set.h ****     void copy(size_t* indices, DistanceType* dists, size_t num_elements, bool sorted = true)
 280:/home/junholee/git/flann/src/cpp/flann/util/result_set.h ****     {
 281:/home/junholee/git/flann/src/cpp/flann/util/result_set.h ****     	size_t n = std::min(count_, num_elements);
 282:/home/junholee/git/flann/src/cpp/flann/util/result_set.h ****     	for (size_t i=0; i<n; ++i) {
 283:/home/junholee/git/flann/src/cpp/flann/util/result_set.h ****     		*indices++ = dist_index_[i].index_;
 284:/home/junholee/git/flann/src/cpp/flann/util/result_set.h ****     		*dists++ = dist_index_[i].dist_;
 285:/home/junholee/git/flann/src/cpp/flann/util/result_set.h ****     	}
 286:/home/junholee/git/flann/src/cpp/flann/util/result_set.h ****     }
 287:/home/junholee/git/flann/src/cpp/flann/util/result_set.h **** 
 288:/home/junholee/git/flann/src/cpp/flann/util/result_set.h ****     DistanceType worstDist() const
 289:/home/junholee/git/flann/src/cpp/flann/util/result_set.h ****     {
 290:/home/junholee/git/flann/src/cpp/flann/util/result_set.h ****         return worst_distance_;
 291:/home/junholee/git/flann/src/cpp/flann/util/result_set.h ****     }
 292:/home/junholee/git/flann/src/cpp/flann/util/result_set.h **** 
 293:/home/junholee/git/flann/src/cpp/flann/util/result_set.h **** private:
 294:/home/junholee/git/flann/src/cpp/flann/util/result_set.h ****     size_t capacity_;
 295:/home/junholee/git/flann/src/cpp/flann/util/result_set.h ****     size_t count_;
 296:/home/junholee/git/flann/src/cpp/flann/util/result_set.h ****     DistanceType worst_distance_;
 297:/home/junholee/git/flann/src/cpp/flann/util/result_set.h ****     std::vector<DistIndex> dist_index_;
 298:/home/junholee/git/flann/src/cpp/flann/util/result_set.h **** 
 299:/home/junholee/git/flann/src/cpp/flann/util/result_set.h **** };
 300:/home/junholee/git/flann/src/cpp/flann/util/result_set.h **** 
 301:/home/junholee/git/flann/src/cpp/flann/util/result_set.h **** 
 302:/home/junholee/git/flann/src/cpp/flann/util/result_set.h **** 
 303:/home/junholee/git/flann/src/cpp/flann/util/result_set.h **** template <typename DistanceType>
 304:/home/junholee/git/flann/src/cpp/flann/util/result_set.h **** class KNNResultSet2 : public ResultSet<DistanceType>
 305:/home/junholee/git/flann/src/cpp/flann/util/result_set.h **** {
 306:/home/junholee/git/flann/src/cpp/flann/util/result_set.h **** public:
 307:/home/junholee/git/flann/src/cpp/flann/util/result_set.h **** 	typedef DistanceIndex<DistanceType> DistIndex;
 308:/home/junholee/git/flann/src/cpp/flann/util/result_set.h **** 
 309:/home/junholee/git/flann/src/cpp/flann/util/result_set.h **** 	KNNResultSet2(size_t capacity_) :
 310:/home/junholee/git/flann/src/cpp/flann/util/result_set.h ****         capacity_(capacity_)
 311:/home/junholee/git/flann/src/cpp/flann/util/result_set.h ****     {
 312:/home/junholee/git/flann/src/cpp/flann/util/result_set.h **** 		// reserving capacity to prevent memory re-allocations
 313:/home/junholee/git/flann/src/cpp/flann/util/result_set.h **** 		dist_index_.reserve(capacity_);
 314:/home/junholee/git/flann/src/cpp/flann/util/result_set.h ****     	clear();
 315:/home/junholee/git/flann/src/cpp/flann/util/result_set.h ****     }
 316:/home/junholee/git/flann/src/cpp/flann/util/result_set.h **** 
 317:/home/junholee/git/flann/src/cpp/flann/util/result_set.h ****     ~KNNResultSet2()
 318:/home/junholee/git/flann/src/cpp/flann/util/result_set.h ****     {
 319:/home/junholee/git/flann/src/cpp/flann/util/result_set.h ****     }
 320:/home/junholee/git/flann/src/cpp/flann/util/result_set.h **** 
 321:/home/junholee/git/flann/src/cpp/flann/util/result_set.h ****     /**
 322:/home/junholee/git/flann/src/cpp/flann/util/result_set.h ****      * Clears the result set
 323:/home/junholee/git/flann/src/cpp/flann/util/result_set.h ****      */
 324:/home/junholee/git/flann/src/cpp/flann/util/result_set.h ****     void clear()
 325:/home/junholee/git/flann/src/cpp/flann/util/result_set.h ****     {
 326:/home/junholee/git/flann/src/cpp/flann/util/result_set.h ****         dist_index_.clear();
 327:/home/junholee/git/flann/src/cpp/flann/util/result_set.h ****         worst_dist_ = std::numeric_limits<DistanceType>::max();
 328:/home/junholee/git/flann/src/cpp/flann/util/result_set.h ****         is_full_ = false;
 329:/home/junholee/git/flann/src/cpp/flann/util/result_set.h ****     }
 330:/home/junholee/git/flann/src/cpp/flann/util/result_set.h **** 
 331:/home/junholee/git/flann/src/cpp/flann/util/result_set.h ****     /**
 332:/home/junholee/git/flann/src/cpp/flann/util/result_set.h ****      *
GAS LISTING /tmp/ccTfuPTI.s 			page 7


 333:/home/junholee/git/flann/src/cpp/flann/util/result_set.h ****      * @return Number of elements in the result set
 334:/home/junholee/git/flann/src/cpp/flann/util/result_set.h ****      */
 335:/home/junholee/git/flann/src/cpp/flann/util/result_set.h ****     size_t size() const
 336:/home/junholee/git/flann/src/cpp/flann/util/result_set.h ****     {
 337:/home/junholee/git/flann/src/cpp/flann/util/result_set.h ****         return dist_index_.size();
 338:/home/junholee/git/flann/src/cpp/flann/util/result_set.h ****     }
 339:/home/junholee/git/flann/src/cpp/flann/util/result_set.h **** 
 340:/home/junholee/git/flann/src/cpp/flann/util/result_set.h ****     /**
 341:/home/junholee/git/flann/src/cpp/flann/util/result_set.h ****      * Radius search result set always reports full
 342:/home/junholee/git/flann/src/cpp/flann/util/result_set.h ****      * @return
 343:/home/junholee/git/flann/src/cpp/flann/util/result_set.h ****      */
 344:/home/junholee/git/flann/src/cpp/flann/util/result_set.h ****     bool full() const
 345:/home/junholee/git/flann/src/cpp/flann/util/result_set.h ****     {
 346:/home/junholee/git/flann/src/cpp/flann/util/result_set.h ****         return is_full_;
 347:/home/junholee/git/flann/src/cpp/flann/util/result_set.h ****     }
 348:/home/junholee/git/flann/src/cpp/flann/util/result_set.h **** 
 349:/home/junholee/git/flann/src/cpp/flann/util/result_set.h ****     /**
 350:/home/junholee/git/flann/src/cpp/flann/util/result_set.h ****      * Add another point to result set
 351:/home/junholee/git/flann/src/cpp/flann/util/result_set.h ****      * @param dist distance to point
 352:/home/junholee/git/flann/src/cpp/flann/util/result_set.h ****      * @param index index of point
 353:/home/junholee/git/flann/src/cpp/flann/util/result_set.h ****      * Pre-conditions: capacity_>0
 354:/home/junholee/git/flann/src/cpp/flann/util/result_set.h ****      */
 355:/home/junholee/git/flann/src/cpp/flann/util/result_set.h ****     void addPoint(DistanceType dist, size_t index)
 356:/home/junholee/git/flann/src/cpp/flann/util/result_set.h ****     {
 357:/home/junholee/git/flann/src/cpp/flann/util/result_set.h ****     	if (dist>=worst_dist_) return;
 358:/home/junholee/git/flann/src/cpp/flann/util/result_set.h **** 
 359:/home/junholee/git/flann/src/cpp/flann/util/result_set.h ****     	if (dist_index_.size()==capacity_) {
 360:/home/junholee/git/flann/src/cpp/flann/util/result_set.h ****     		// if result set if filled to capacity, remove farthest element
 361:/home/junholee/git/flann/src/cpp/flann/util/result_set.h ****     		std::pop_heap(dist_index_.begin(), dist_index_.end());
 362:/home/junholee/git/flann/src/cpp/flann/util/result_set.h ****         	dist_index_.pop_back();
 363:/home/junholee/git/flann/src/cpp/flann/util/result_set.h ****     	}
 364:/home/junholee/git/flann/src/cpp/flann/util/result_set.h **** 
 365:/home/junholee/git/flann/src/cpp/flann/util/result_set.h ****     	// add new element
 366:/home/junholee/git/flann/src/cpp/flann/util/result_set.h ****     	dist_index_.push_back(DistIndex(dist,index));
 367:/home/junholee/git/flann/src/cpp/flann/util/result_set.h ****     	if (is_full_) { // when is_full_==true, we have a heap
 368:/home/junholee/git/flann/src/cpp/flann/util/result_set.h ****     		std::push_heap(dist_index_.begin(), dist_index_.end());
 369:/home/junholee/git/flann/src/cpp/flann/util/result_set.h ****     	}
 370:/home/junholee/git/flann/src/cpp/flann/util/result_set.h **** 
 371:/home/junholee/git/flann/src/cpp/flann/util/result_set.h ****     	if (dist_index_.size()==capacity_) {
 372:/home/junholee/git/flann/src/cpp/flann/util/result_set.h ****     		if (!is_full_) {
 373:/home/junholee/git/flann/src/cpp/flann/util/result_set.h ****     			std::make_heap(dist_index_.begin(), dist_index_.end());
 374:/home/junholee/git/flann/src/cpp/flann/util/result_set.h ****             	is_full_ = true;
 375:/home/junholee/git/flann/src/cpp/flann/util/result_set.h ****     		}
 376:/home/junholee/git/flann/src/cpp/flann/util/result_set.h ****     		// we replaced the farthest element, update worst distance
 377:/home/junholee/git/flann/src/cpp/flann/util/result_set.h ****         	worst_dist_ = dist_index_[0].dist_;
 378:/home/junholee/git/flann/src/cpp/flann/util/result_set.h ****         }
 379:/home/junholee/git/flann/src/cpp/flann/util/result_set.h ****     }
 380:/home/junholee/git/flann/src/cpp/flann/util/result_set.h **** 
 381:/home/junholee/git/flann/src/cpp/flann/util/result_set.h ****     /**
 382:/home/junholee/git/flann/src/cpp/flann/util/result_set.h ****      * Copy indices and distances to output buffers
 383:/home/junholee/git/flann/src/cpp/flann/util/result_set.h ****      * @param indices
 384:/home/junholee/git/flann/src/cpp/flann/util/result_set.h ****      * @param dists
 385:/home/junholee/git/flann/src/cpp/flann/util/result_set.h ****      * @param num_elements Number of elements to copy
 386:/home/junholee/git/flann/src/cpp/flann/util/result_set.h ****      * @param sorted Indicates if results should be sorted
 387:/home/junholee/git/flann/src/cpp/flann/util/result_set.h ****      */
 388:/home/junholee/git/flann/src/cpp/flann/util/result_set.h ****     void copy(size_t* indices, DistanceType* dists, size_t num_elements, bool sorted = true)
 389:/home/junholee/git/flann/src/cpp/flann/util/result_set.h ****     {
GAS LISTING /tmp/ccTfuPTI.s 			page 8


 390:/home/junholee/git/flann/src/cpp/flann/util/result_set.h ****     	if (sorted) {
 391:/home/junholee/git/flann/src/cpp/flann/util/result_set.h ****     		// std::sort_heap(dist_index_.begin(), dist_index_.end());
 392:/home/junholee/git/flann/src/cpp/flann/util/result_set.h ****     		// sort seems faster here, even though dist_index_ is a heap
 393:/home/junholee/git/flann/src/cpp/flann/util/result_set.h ****     		std::sort(dist_index_.begin(), dist_index_.end());
 394:/home/junholee/git/flann/src/cpp/flann/util/result_set.h ****     	}
 395:/home/junholee/git/flann/src/cpp/flann/util/result_set.h ****     	else {
 396:/home/junholee/git/flann/src/cpp/flann/util/result_set.h ****     		if (num_elements<size()) {
 397:/home/junholee/git/flann/src/cpp/flann/util/result_set.h ****     			std::nth_element(dist_index_.begin(), dist_index_.begin()+num_elements, dist_index_.end());
 398:/home/junholee/git/flann/src/cpp/flann/util/result_set.h ****     		}
 399:/home/junholee/git/flann/src/cpp/flann/util/result_set.h ****     	}
 400:/home/junholee/git/flann/src/cpp/flann/util/result_set.h **** 
 401:/home/junholee/git/flann/src/cpp/flann/util/result_set.h ****     	size_t n = std::min(dist_index_.size(), num_elements);
 402:/home/junholee/git/flann/src/cpp/flann/util/result_set.h ****     	for (size_t i=0; i<n; ++i) {
 403:/home/junholee/git/flann/src/cpp/flann/util/result_set.h ****     		*indices++ = dist_index_[i].index_;
 404:/home/junholee/git/flann/src/cpp/flann/util/result_set.h ****     		*dists++ = dist_index_[i].dist_;
 405:/home/junholee/git/flann/src/cpp/flann/util/result_set.h ****     	}
 406:/home/junholee/git/flann/src/cpp/flann/util/result_set.h ****     }
 407:/home/junholee/git/flann/src/cpp/flann/util/result_set.h **** 
 408:/home/junholee/git/flann/src/cpp/flann/util/result_set.h ****     DistanceType worstDist() const
  11              		.loc 1 408 0
  12              		.cfi_startproc
  13              	.LVL0:
 409:/home/junholee/git/flann/src/cpp/flann/util/result_set.h ****     {
 410:/home/junholee/git/flann/src/cpp/flann/util/result_set.h ****     	return worst_dist_;
  14              		.loc 1 410 0
  15 0000 F30F1047 		movss	16(%rdi), %xmm0
  15      10
 411:/home/junholee/git/flann/src/cpp/flann/util/result_set.h ****     }
  16              		.loc 1 411 0
  17 0005 C3       		ret
  18              		.cfi_endproc
  19              	.LFE4628:
  20              		.size	_ZNK5flann13KNNResultSet2IfE9worstDistEv, .-_ZNK5flann13KNNResultSet2IfE9worstDistEv
  21              		.section	.text._ZNK5flann13KNNResultSet2IfE4fullEv,"axG",@progbits,_ZNK5flann13KNNResultSet2IfE4fu
  22              		.align 2
  23              		.weak	_ZNK5flann13KNNResultSet2IfE4fullEv
  24              		.type	_ZNK5flann13KNNResultSet2IfE4fullEv, @function
  25              	_ZNK5flann13KNNResultSet2IfE4fullEv:
  26              	.LFB4629:
 344:/home/junholee/git/flann/src/cpp/flann/util/result_set.h ****     {
  27              		.loc 1 344 0
  28              		.cfi_startproc
  29              	.LVL1:
 346:/home/junholee/git/flann/src/cpp/flann/util/result_set.h ****     }
  30              		.loc 1 346 0
  31 0000 0FB64730 		movzbl	48(%rdi), %eax
 347:/home/junholee/git/flann/src/cpp/flann/util/result_set.h **** 
  32              		.loc 1 347 0
  33 0004 C3       		ret
  34              		.cfi_endproc
  35              	.LFE4629:
  36              		.size	_ZNK5flann13KNNResultSet2IfE4fullEv, .-_ZNK5flann13KNNResultSet2IfE4fullEv
  37              		.section	.text._ZN5flann13DynamicBitsetD2Ev,"axG",@progbits,_ZN5flann13DynamicBitsetD5Ev,comdat
  38              		.align 2
  39              		.weak	_ZN5flann13DynamicBitsetD2Ev
  40              		.type	_ZN5flann13DynamicBitsetD2Ev, @function
  41              	_ZN5flann13DynamicBitsetD2Ev:
GAS LISTING /tmp/ccTfuPTI.s 			page 9


  42              	.LFB4294:
  43              		.file 2 "/home/junholee/git/flann/src/cpp/flann/util/dynamic_bitset.h"
   1:/home/junholee/git/flann/src/cpp/flann/util/dynamic_bitset.h **** /***********************************************************************
   2:/home/junholee/git/flann/src/cpp/flann/util/dynamic_bitset.h ****  * Software License Agreement (BSD License)
   3:/home/junholee/git/flann/src/cpp/flann/util/dynamic_bitset.h ****  *
   4:/home/junholee/git/flann/src/cpp/flann/util/dynamic_bitset.h ****  * Copyright 2008-2009  Marius Muja (mariusm@cs.ubc.ca). All rights reserved.
   5:/home/junholee/git/flann/src/cpp/flann/util/dynamic_bitset.h ****  * Copyright 2008-2009  David G. Lowe (lowe@cs.ubc.ca). All rights reserved.
   6:/home/junholee/git/flann/src/cpp/flann/util/dynamic_bitset.h ****  *
   7:/home/junholee/git/flann/src/cpp/flann/util/dynamic_bitset.h ****  * THE BSD LICENSE
   8:/home/junholee/git/flann/src/cpp/flann/util/dynamic_bitset.h ****  *
   9:/home/junholee/git/flann/src/cpp/flann/util/dynamic_bitset.h ****  * Redistribution and use in source and binary forms, with or without
  10:/home/junholee/git/flann/src/cpp/flann/util/dynamic_bitset.h ****  * modification, are permitted provided that the following conditions
  11:/home/junholee/git/flann/src/cpp/flann/util/dynamic_bitset.h ****  * are met:
  12:/home/junholee/git/flann/src/cpp/flann/util/dynamic_bitset.h ****  *
  13:/home/junholee/git/flann/src/cpp/flann/util/dynamic_bitset.h ****  * 1. Redistributions of source code must retain the above copyright
  14:/home/junholee/git/flann/src/cpp/flann/util/dynamic_bitset.h ****  *    notice, this list of conditions and the following disclaimer.
  15:/home/junholee/git/flann/src/cpp/flann/util/dynamic_bitset.h ****  * 2. Redistributions in binary form must reproduce the above copyright
  16:/home/junholee/git/flann/src/cpp/flann/util/dynamic_bitset.h ****  *    notice, this list of conditions and the following disclaimer in the
  17:/home/junholee/git/flann/src/cpp/flann/util/dynamic_bitset.h ****  *    documentation and/or other materials provided with the distribution.
  18:/home/junholee/git/flann/src/cpp/flann/util/dynamic_bitset.h ****  *
  19:/home/junholee/git/flann/src/cpp/flann/util/dynamic_bitset.h ****  * THIS SOFTWARE IS PROVIDED BY THE AUTHOR ``AS IS'' AND ANY EXPRESS OR
  20:/home/junholee/git/flann/src/cpp/flann/util/dynamic_bitset.h ****  * IMPLIED WARRANTIES, INCLUDING, BUT NOT LIMITED TO, THE IMPLIED WARRANTIES
  21:/home/junholee/git/flann/src/cpp/flann/util/dynamic_bitset.h ****  * OF MERCHANTABILITY AND FITNESS FOR A PARTICULAR PURPOSE ARE DISCLAIMED.
  22:/home/junholee/git/flann/src/cpp/flann/util/dynamic_bitset.h ****  * IN NO EVENT SHALL THE AUTHOR BE LIABLE FOR ANY DIRECT, INDIRECT,
  23:/home/junholee/git/flann/src/cpp/flann/util/dynamic_bitset.h ****  * INCIDENTAL, SPECIAL, EXEMPLARY, OR CONSEQUENTIAL DAMAGES (INCLUDING, BUT
  24:/home/junholee/git/flann/src/cpp/flann/util/dynamic_bitset.h ****  * NOT LIMITED TO, PROCUREMENT OF SUBSTITUTE GOODS OR SERVICES; LOSS OF USE,
  25:/home/junholee/git/flann/src/cpp/flann/util/dynamic_bitset.h ****  * DATA, OR PROFITS; OR BUSINESS INTERRUPTION) HOWEVER CAUSED AND ON ANY
  26:/home/junholee/git/flann/src/cpp/flann/util/dynamic_bitset.h ****  * THEORY OF LIABILITY, WHETHER IN CONTRACT, STRICT LIABILITY, OR TORT
  27:/home/junholee/git/flann/src/cpp/flann/util/dynamic_bitset.h ****  * (INCLUDING NEGLIGENCE OR OTHERWISE) ARISING IN ANY WAY OUT OF THE USE OF
  28:/home/junholee/git/flann/src/cpp/flann/util/dynamic_bitset.h ****  * THIS SOFTWARE, EVEN IF ADVISED OF THE POSSIBILITY OF SUCH DAMAGE.
  29:/home/junholee/git/flann/src/cpp/flann/util/dynamic_bitset.h ****  *************************************************************************/
  30:/home/junholee/git/flann/src/cpp/flann/util/dynamic_bitset.h **** 
  31:/home/junholee/git/flann/src/cpp/flann/util/dynamic_bitset.h **** /***********************************************************************
  32:/home/junholee/git/flann/src/cpp/flann/util/dynamic_bitset.h ****  * Author: Vincent Rabaud
  33:/home/junholee/git/flann/src/cpp/flann/util/dynamic_bitset.h ****  *************************************************************************/
  34:/home/junholee/git/flann/src/cpp/flann/util/dynamic_bitset.h **** 
  35:/home/junholee/git/flann/src/cpp/flann/util/dynamic_bitset.h **** #ifndef FLANN_DYNAMIC_BITSET_H_
  36:/home/junholee/git/flann/src/cpp/flann/util/dynamic_bitset.h **** #define FLANN_DYNAMIC_BITSET_H_
  37:/home/junholee/git/flann/src/cpp/flann/util/dynamic_bitset.h **** 
  38:/home/junholee/git/flann/src/cpp/flann/util/dynamic_bitset.h **** //#define FLANN_USE_BOOST 1
  39:/home/junholee/git/flann/src/cpp/flann/util/dynamic_bitset.h **** #if FLANN_USE_BOOST
  40:/home/junholee/git/flann/src/cpp/flann/util/dynamic_bitset.h **** #include <boost/dynamic_bitset.hpp>
  41:/home/junholee/git/flann/src/cpp/flann/util/dynamic_bitset.h **** typedef boost::dynamic_bitset<> DynamicBitset;
  42:/home/junholee/git/flann/src/cpp/flann/util/dynamic_bitset.h **** #else
  43:/home/junholee/git/flann/src/cpp/flann/util/dynamic_bitset.h **** 
  44:/home/junholee/git/flann/src/cpp/flann/util/dynamic_bitset.h **** #include <limits.h>
  45:/home/junholee/git/flann/src/cpp/flann/util/dynamic_bitset.h **** 
  46:/home/junholee/git/flann/src/cpp/flann/util/dynamic_bitset.h **** namespace flann {
  47:/home/junholee/git/flann/src/cpp/flann/util/dynamic_bitset.h **** 
  48:/home/junholee/git/flann/src/cpp/flann/util/dynamic_bitset.h **** /** Class re-implementing the boost version of it
  49:/home/junholee/git/flann/src/cpp/flann/util/dynamic_bitset.h ****  * This helps not depending on boost, it also does not do the bound checks
  50:/home/junholee/git/flann/src/cpp/flann/util/dynamic_bitset.h ****  * and has a way to reset a block for speed
  51:/home/junholee/git/flann/src/cpp/flann/util/dynamic_bitset.h ****  */
  52:/home/junholee/git/flann/src/cpp/flann/util/dynamic_bitset.h **** class DynamicBitset
  44              		.loc 2 52 0
  45              		.cfi_startproc
  46              	.LVL2:
GAS LISTING /tmp/ccTfuPTI.s 			page 10


  47              	.LBB1568:
  48              	.LBB1569:
  49              		.file 3 "/usr/include/c++/7/bits/stl_vector.h"
   1:/usr/include/c++/7/bits/stl_vector.h **** // Vector implementation -*- C++ -*-
   2:/usr/include/c++/7/bits/stl_vector.h **** 
   3:/usr/include/c++/7/bits/stl_vector.h **** // Copyright (C) 2001-2017 Free Software Foundation, Inc.
   4:/usr/include/c++/7/bits/stl_vector.h **** //
   5:/usr/include/c++/7/bits/stl_vector.h **** // This file is part of the GNU ISO C++ Library.  This library is free
   6:/usr/include/c++/7/bits/stl_vector.h **** // software; you can redistribute it and/or modify it under the
   7:/usr/include/c++/7/bits/stl_vector.h **** // terms of the GNU General Public License as published by the
   8:/usr/include/c++/7/bits/stl_vector.h **** // Free Software Foundation; either version 3, or (at your option)
   9:/usr/include/c++/7/bits/stl_vector.h **** // any later version.
  10:/usr/include/c++/7/bits/stl_vector.h **** 
  11:/usr/include/c++/7/bits/stl_vector.h **** // This library is distributed in the hope that it will be useful,
  12:/usr/include/c++/7/bits/stl_vector.h **** // but WITHOUT ANY WARRANTY; without even the implied warranty of
  13:/usr/include/c++/7/bits/stl_vector.h **** // MERCHANTABILITY or FITNESS FOR A PARTICULAR PURPOSE.  See the
  14:/usr/include/c++/7/bits/stl_vector.h **** // GNU General Public License for more details.
  15:/usr/include/c++/7/bits/stl_vector.h **** 
  16:/usr/include/c++/7/bits/stl_vector.h **** // Under Section 7 of GPL version 3, you are granted additional
  17:/usr/include/c++/7/bits/stl_vector.h **** // permissions described in the GCC Runtime Library Exception, version
  18:/usr/include/c++/7/bits/stl_vector.h **** // 3.1, as published by the Free Software Foundation.
  19:/usr/include/c++/7/bits/stl_vector.h **** 
  20:/usr/include/c++/7/bits/stl_vector.h **** // You should have received a copy of the GNU General Public License and
  21:/usr/include/c++/7/bits/stl_vector.h **** // a copy of the GCC Runtime Library Exception along with this program;
  22:/usr/include/c++/7/bits/stl_vector.h **** // see the files COPYING3 and COPYING.RUNTIME respectively.  If not, see
  23:/usr/include/c++/7/bits/stl_vector.h **** // <http://www.gnu.org/licenses/>.
  24:/usr/include/c++/7/bits/stl_vector.h **** 
  25:/usr/include/c++/7/bits/stl_vector.h **** /*
  26:/usr/include/c++/7/bits/stl_vector.h ****  *
  27:/usr/include/c++/7/bits/stl_vector.h ****  * Copyright (c) 1994
  28:/usr/include/c++/7/bits/stl_vector.h ****  * Hewlett-Packard Company
  29:/usr/include/c++/7/bits/stl_vector.h ****  *
  30:/usr/include/c++/7/bits/stl_vector.h ****  * Permission to use, copy, modify, distribute and sell this software
  31:/usr/include/c++/7/bits/stl_vector.h ****  * and its documentation for any purpose is hereby granted without fee,
  32:/usr/include/c++/7/bits/stl_vector.h ****  * provided that the above copyright notice appear in all copies and
  33:/usr/include/c++/7/bits/stl_vector.h ****  * that both that copyright notice and this permission notice appear
  34:/usr/include/c++/7/bits/stl_vector.h ****  * in supporting documentation.  Hewlett-Packard Company makes no
  35:/usr/include/c++/7/bits/stl_vector.h ****  * representations about the suitability of this software for any
  36:/usr/include/c++/7/bits/stl_vector.h ****  * purpose.  It is provided "as is" without express or implied warranty.
  37:/usr/include/c++/7/bits/stl_vector.h ****  *
  38:/usr/include/c++/7/bits/stl_vector.h ****  *
  39:/usr/include/c++/7/bits/stl_vector.h ****  * Copyright (c) 1996
  40:/usr/include/c++/7/bits/stl_vector.h ****  * Silicon Graphics Computer Systems, Inc.
  41:/usr/include/c++/7/bits/stl_vector.h ****  *
  42:/usr/include/c++/7/bits/stl_vector.h ****  * Permission to use, copy, modify, distribute and sell this software
  43:/usr/include/c++/7/bits/stl_vector.h ****  * and its documentation for any purpose is hereby granted without fee,
  44:/usr/include/c++/7/bits/stl_vector.h ****  * provided that the above copyright notice appear in all copies and
  45:/usr/include/c++/7/bits/stl_vector.h ****  * that both that copyright notice and this permission notice appear
  46:/usr/include/c++/7/bits/stl_vector.h ****  * in supporting documentation.  Silicon Graphics makes no
  47:/usr/include/c++/7/bits/stl_vector.h ****  * representations about the suitability of this  software for any
  48:/usr/include/c++/7/bits/stl_vector.h ****  * purpose.  It is provided "as is" without express or implied warranty.
  49:/usr/include/c++/7/bits/stl_vector.h ****  */
  50:/usr/include/c++/7/bits/stl_vector.h **** 
  51:/usr/include/c++/7/bits/stl_vector.h **** /** @file bits/stl_vector.h
  52:/usr/include/c++/7/bits/stl_vector.h ****  *  This is an internal header file, included by other library headers.
  53:/usr/include/c++/7/bits/stl_vector.h ****  *  Do not attempt to use it directly. @headername{vector}
  54:/usr/include/c++/7/bits/stl_vector.h ****  */
GAS LISTING /tmp/ccTfuPTI.s 			page 11


  55:/usr/include/c++/7/bits/stl_vector.h **** 
  56:/usr/include/c++/7/bits/stl_vector.h **** #ifndef _STL_VECTOR_H
  57:/usr/include/c++/7/bits/stl_vector.h **** #define _STL_VECTOR_H 1
  58:/usr/include/c++/7/bits/stl_vector.h **** 
  59:/usr/include/c++/7/bits/stl_vector.h **** #include <bits/stl_iterator_base_funcs.h>
  60:/usr/include/c++/7/bits/stl_vector.h **** #include <bits/functexcept.h>
  61:/usr/include/c++/7/bits/stl_vector.h **** #include <bits/concept_check.h>
  62:/usr/include/c++/7/bits/stl_vector.h **** #if __cplusplus >= 201103L
  63:/usr/include/c++/7/bits/stl_vector.h **** #include <initializer_list>
  64:/usr/include/c++/7/bits/stl_vector.h **** #endif
  65:/usr/include/c++/7/bits/stl_vector.h **** 
  66:/usr/include/c++/7/bits/stl_vector.h **** #include <debug/assertions.h>
  67:/usr/include/c++/7/bits/stl_vector.h **** 
  68:/usr/include/c++/7/bits/stl_vector.h **** namespace std _GLIBCXX_VISIBILITY(default)
  69:/usr/include/c++/7/bits/stl_vector.h **** {
  70:/usr/include/c++/7/bits/stl_vector.h **** _GLIBCXX_BEGIN_NAMESPACE_CONTAINER
  71:/usr/include/c++/7/bits/stl_vector.h **** 
  72:/usr/include/c++/7/bits/stl_vector.h ****   /// See bits/stl_deque.h's _Deque_base for an explanation.
  73:/usr/include/c++/7/bits/stl_vector.h ****   template<typename _Tp, typename _Alloc>
  74:/usr/include/c++/7/bits/stl_vector.h ****     struct _Vector_base
  75:/usr/include/c++/7/bits/stl_vector.h ****     {
  76:/usr/include/c++/7/bits/stl_vector.h ****       typedef typename __gnu_cxx::__alloc_traits<_Alloc>::template
  77:/usr/include/c++/7/bits/stl_vector.h **** 	rebind<_Tp>::other _Tp_alloc_type;
  78:/usr/include/c++/7/bits/stl_vector.h ****       typedef typename __gnu_cxx::__alloc_traits<_Tp_alloc_type>::pointer
  79:/usr/include/c++/7/bits/stl_vector.h ****        	pointer;
  80:/usr/include/c++/7/bits/stl_vector.h **** 
  81:/usr/include/c++/7/bits/stl_vector.h ****       struct _Vector_impl
  82:/usr/include/c++/7/bits/stl_vector.h ****       : public _Tp_alloc_type
  83:/usr/include/c++/7/bits/stl_vector.h ****       {
  84:/usr/include/c++/7/bits/stl_vector.h **** 	pointer _M_start;
  85:/usr/include/c++/7/bits/stl_vector.h **** 	pointer _M_finish;
  86:/usr/include/c++/7/bits/stl_vector.h **** 	pointer _M_end_of_storage;
  87:/usr/include/c++/7/bits/stl_vector.h **** 
  88:/usr/include/c++/7/bits/stl_vector.h **** 	_Vector_impl()
  89:/usr/include/c++/7/bits/stl_vector.h **** 	: _Tp_alloc_type(), _M_start(), _M_finish(), _M_end_of_storage()
  90:/usr/include/c++/7/bits/stl_vector.h **** 	{ }
  91:/usr/include/c++/7/bits/stl_vector.h **** 
  92:/usr/include/c++/7/bits/stl_vector.h **** 	_Vector_impl(_Tp_alloc_type const& __a) _GLIBCXX_NOEXCEPT
  93:/usr/include/c++/7/bits/stl_vector.h **** 	: _Tp_alloc_type(__a), _M_start(), _M_finish(), _M_end_of_storage()
  94:/usr/include/c++/7/bits/stl_vector.h **** 	{ }
  95:/usr/include/c++/7/bits/stl_vector.h **** 
  96:/usr/include/c++/7/bits/stl_vector.h **** #if __cplusplus >= 201103L
  97:/usr/include/c++/7/bits/stl_vector.h **** 	_Vector_impl(_Tp_alloc_type&& __a) noexcept
  98:/usr/include/c++/7/bits/stl_vector.h **** 	: _Tp_alloc_type(std::move(__a)),
  99:/usr/include/c++/7/bits/stl_vector.h **** 	  _M_start(), _M_finish(), _M_end_of_storage()
 100:/usr/include/c++/7/bits/stl_vector.h **** 	{ }
 101:/usr/include/c++/7/bits/stl_vector.h **** #endif
 102:/usr/include/c++/7/bits/stl_vector.h **** 
 103:/usr/include/c++/7/bits/stl_vector.h **** 	void _M_swap_data(_Vector_impl& __x) _GLIBCXX_NOEXCEPT
 104:/usr/include/c++/7/bits/stl_vector.h **** 	{
 105:/usr/include/c++/7/bits/stl_vector.h **** 	  std::swap(_M_start, __x._M_start);
 106:/usr/include/c++/7/bits/stl_vector.h **** 	  std::swap(_M_finish, __x._M_finish);
 107:/usr/include/c++/7/bits/stl_vector.h **** 	  std::swap(_M_end_of_storage, __x._M_end_of_storage);
 108:/usr/include/c++/7/bits/stl_vector.h **** 	}
 109:/usr/include/c++/7/bits/stl_vector.h ****       };
 110:/usr/include/c++/7/bits/stl_vector.h **** 
 111:/usr/include/c++/7/bits/stl_vector.h ****     public:
GAS LISTING /tmp/ccTfuPTI.s 			page 12


 112:/usr/include/c++/7/bits/stl_vector.h ****       typedef _Alloc allocator_type;
 113:/usr/include/c++/7/bits/stl_vector.h **** 
 114:/usr/include/c++/7/bits/stl_vector.h ****       _Tp_alloc_type&
 115:/usr/include/c++/7/bits/stl_vector.h ****       _M_get_Tp_allocator() _GLIBCXX_NOEXCEPT
 116:/usr/include/c++/7/bits/stl_vector.h ****       { return *static_cast<_Tp_alloc_type*>(&this->_M_impl); }
 117:/usr/include/c++/7/bits/stl_vector.h **** 
 118:/usr/include/c++/7/bits/stl_vector.h ****       const _Tp_alloc_type&
 119:/usr/include/c++/7/bits/stl_vector.h ****       _M_get_Tp_allocator() const _GLIBCXX_NOEXCEPT
 120:/usr/include/c++/7/bits/stl_vector.h ****       { return *static_cast<const _Tp_alloc_type*>(&this->_M_impl); }
 121:/usr/include/c++/7/bits/stl_vector.h **** 
 122:/usr/include/c++/7/bits/stl_vector.h ****       allocator_type
 123:/usr/include/c++/7/bits/stl_vector.h ****       get_allocator() const _GLIBCXX_NOEXCEPT
 124:/usr/include/c++/7/bits/stl_vector.h ****       { return allocator_type(_M_get_Tp_allocator()); }
 125:/usr/include/c++/7/bits/stl_vector.h **** 
 126:/usr/include/c++/7/bits/stl_vector.h ****       _Vector_base()
 127:/usr/include/c++/7/bits/stl_vector.h ****       : _M_impl() { }
 128:/usr/include/c++/7/bits/stl_vector.h **** 
 129:/usr/include/c++/7/bits/stl_vector.h ****       _Vector_base(const allocator_type& __a) _GLIBCXX_NOEXCEPT
 130:/usr/include/c++/7/bits/stl_vector.h ****       : _M_impl(__a) { }
 131:/usr/include/c++/7/bits/stl_vector.h **** 
 132:/usr/include/c++/7/bits/stl_vector.h ****       _Vector_base(size_t __n)
 133:/usr/include/c++/7/bits/stl_vector.h ****       : _M_impl()
 134:/usr/include/c++/7/bits/stl_vector.h ****       { _M_create_storage(__n); }
 135:/usr/include/c++/7/bits/stl_vector.h **** 
 136:/usr/include/c++/7/bits/stl_vector.h ****       _Vector_base(size_t __n, const allocator_type& __a)
 137:/usr/include/c++/7/bits/stl_vector.h ****       : _M_impl(__a)
 138:/usr/include/c++/7/bits/stl_vector.h ****       { _M_create_storage(__n); }
 139:/usr/include/c++/7/bits/stl_vector.h **** 
 140:/usr/include/c++/7/bits/stl_vector.h **** #if __cplusplus >= 201103L
 141:/usr/include/c++/7/bits/stl_vector.h ****       _Vector_base(_Tp_alloc_type&& __a) noexcept
 142:/usr/include/c++/7/bits/stl_vector.h ****       : _M_impl(std::move(__a)) { }
 143:/usr/include/c++/7/bits/stl_vector.h **** 
 144:/usr/include/c++/7/bits/stl_vector.h ****       _Vector_base(_Vector_base&& __x) noexcept
 145:/usr/include/c++/7/bits/stl_vector.h ****       : _M_impl(std::move(__x._M_get_Tp_allocator()))
 146:/usr/include/c++/7/bits/stl_vector.h ****       { this->_M_impl._M_swap_data(__x._M_impl); }
 147:/usr/include/c++/7/bits/stl_vector.h **** 
 148:/usr/include/c++/7/bits/stl_vector.h ****       _Vector_base(_Vector_base&& __x, const allocator_type& __a)
 149:/usr/include/c++/7/bits/stl_vector.h ****       : _M_impl(__a)
 150:/usr/include/c++/7/bits/stl_vector.h ****       {
 151:/usr/include/c++/7/bits/stl_vector.h **** 	if (__x.get_allocator() == __a)
 152:/usr/include/c++/7/bits/stl_vector.h **** 	  this->_M_impl._M_swap_data(__x._M_impl);
 153:/usr/include/c++/7/bits/stl_vector.h **** 	else
 154:/usr/include/c++/7/bits/stl_vector.h **** 	  {
 155:/usr/include/c++/7/bits/stl_vector.h **** 	    size_t __n = __x._M_impl._M_finish - __x._M_impl._M_start;
 156:/usr/include/c++/7/bits/stl_vector.h **** 	    _M_create_storage(__n);
 157:/usr/include/c++/7/bits/stl_vector.h **** 	  }
 158:/usr/include/c++/7/bits/stl_vector.h ****       }
 159:/usr/include/c++/7/bits/stl_vector.h **** #endif
 160:/usr/include/c++/7/bits/stl_vector.h **** 
 161:/usr/include/c++/7/bits/stl_vector.h ****       ~_Vector_base() _GLIBCXX_NOEXCEPT
 162:/usr/include/c++/7/bits/stl_vector.h ****       { _M_deallocate(this->_M_impl._M_start, this->_M_impl._M_end_of_storage
 163:/usr/include/c++/7/bits/stl_vector.h **** 		      - this->_M_impl._M_start); }
 164:/usr/include/c++/7/bits/stl_vector.h **** 
 165:/usr/include/c++/7/bits/stl_vector.h ****     public:
 166:/usr/include/c++/7/bits/stl_vector.h ****       _Vector_impl _M_impl;
 167:/usr/include/c++/7/bits/stl_vector.h **** 
 168:/usr/include/c++/7/bits/stl_vector.h ****       pointer
GAS LISTING /tmp/ccTfuPTI.s 			page 13


 169:/usr/include/c++/7/bits/stl_vector.h ****       _M_allocate(size_t __n)
 170:/usr/include/c++/7/bits/stl_vector.h ****       {
 171:/usr/include/c++/7/bits/stl_vector.h **** 	typedef __gnu_cxx::__alloc_traits<_Tp_alloc_type> _Tr;
 172:/usr/include/c++/7/bits/stl_vector.h **** 	return __n != 0 ? _Tr::allocate(_M_impl, __n) : pointer();
 173:/usr/include/c++/7/bits/stl_vector.h ****       }
 174:/usr/include/c++/7/bits/stl_vector.h **** 
 175:/usr/include/c++/7/bits/stl_vector.h ****       void
 176:/usr/include/c++/7/bits/stl_vector.h ****       _M_deallocate(pointer __p, size_t __n)
 177:/usr/include/c++/7/bits/stl_vector.h ****       {
 178:/usr/include/c++/7/bits/stl_vector.h **** 	typedef __gnu_cxx::__alloc_traits<_Tp_alloc_type> _Tr;
 179:/usr/include/c++/7/bits/stl_vector.h **** 	if (__p)
 180:/usr/include/c++/7/bits/stl_vector.h **** 	  _Tr::deallocate(_M_impl, __p, __n);
 181:/usr/include/c++/7/bits/stl_vector.h ****       }
 182:/usr/include/c++/7/bits/stl_vector.h **** 
 183:/usr/include/c++/7/bits/stl_vector.h ****     private:
 184:/usr/include/c++/7/bits/stl_vector.h ****       void
 185:/usr/include/c++/7/bits/stl_vector.h ****       _M_create_storage(size_t __n)
 186:/usr/include/c++/7/bits/stl_vector.h ****       {
 187:/usr/include/c++/7/bits/stl_vector.h **** 	this->_M_impl._M_start = this->_M_allocate(__n);
 188:/usr/include/c++/7/bits/stl_vector.h **** 	this->_M_impl._M_finish = this->_M_impl._M_start;
 189:/usr/include/c++/7/bits/stl_vector.h **** 	this->_M_impl._M_end_of_storage = this->_M_impl._M_start + __n;
 190:/usr/include/c++/7/bits/stl_vector.h ****       }
 191:/usr/include/c++/7/bits/stl_vector.h ****     };
 192:/usr/include/c++/7/bits/stl_vector.h **** 
 193:/usr/include/c++/7/bits/stl_vector.h **** 
 194:/usr/include/c++/7/bits/stl_vector.h ****   /**
 195:/usr/include/c++/7/bits/stl_vector.h ****    *  @brief A standard container which offers fixed time access to
 196:/usr/include/c++/7/bits/stl_vector.h ****    *  individual elements in any order.
 197:/usr/include/c++/7/bits/stl_vector.h ****    *
 198:/usr/include/c++/7/bits/stl_vector.h ****    *  @ingroup sequences
 199:/usr/include/c++/7/bits/stl_vector.h ****    *
 200:/usr/include/c++/7/bits/stl_vector.h ****    *  @tparam _Tp  Type of element.
 201:/usr/include/c++/7/bits/stl_vector.h ****    *  @tparam _Alloc  Allocator type, defaults to allocator<_Tp>.
 202:/usr/include/c++/7/bits/stl_vector.h ****    *
 203:/usr/include/c++/7/bits/stl_vector.h ****    *  Meets the requirements of a <a href="tables.html#65">container</a>, a
 204:/usr/include/c++/7/bits/stl_vector.h ****    *  <a href="tables.html#66">reversible container</a>, and a
 205:/usr/include/c++/7/bits/stl_vector.h ****    *  <a href="tables.html#67">sequence</a>, including the
 206:/usr/include/c++/7/bits/stl_vector.h ****    *  <a href="tables.html#68">optional sequence requirements</a> with the
 207:/usr/include/c++/7/bits/stl_vector.h ****    *  %exception of @c push_front and @c pop_front.
 208:/usr/include/c++/7/bits/stl_vector.h ****    *
 209:/usr/include/c++/7/bits/stl_vector.h ****    *  In some terminology a %vector can be described as a dynamic
 210:/usr/include/c++/7/bits/stl_vector.h ****    *  C-style array, it offers fast and efficient access to individual
 211:/usr/include/c++/7/bits/stl_vector.h ****    *  elements in any order and saves the user from worrying about
 212:/usr/include/c++/7/bits/stl_vector.h ****    *  memory and size allocation.  Subscripting ( @c [] ) access is
 213:/usr/include/c++/7/bits/stl_vector.h ****    *  also provided as with C-style arrays.
 214:/usr/include/c++/7/bits/stl_vector.h ****   */
 215:/usr/include/c++/7/bits/stl_vector.h ****   template<typename _Tp, typename _Alloc = std::allocator<_Tp> >
 216:/usr/include/c++/7/bits/stl_vector.h ****     class vector : protected _Vector_base<_Tp, _Alloc>
 217:/usr/include/c++/7/bits/stl_vector.h ****     {
 218:/usr/include/c++/7/bits/stl_vector.h **** #ifdef _GLIBCXX_CONCEPT_CHECKS
 219:/usr/include/c++/7/bits/stl_vector.h ****       // Concept requirements.
 220:/usr/include/c++/7/bits/stl_vector.h ****       typedef typename _Alloc::value_type		_Alloc_value_type;
 221:/usr/include/c++/7/bits/stl_vector.h **** # if __cplusplus < 201103L
 222:/usr/include/c++/7/bits/stl_vector.h ****       __glibcxx_class_requires(_Tp, _SGIAssignableConcept)
 223:/usr/include/c++/7/bits/stl_vector.h **** # endif
 224:/usr/include/c++/7/bits/stl_vector.h ****       __glibcxx_class_requires2(_Tp, _Alloc_value_type, _SameTypeConcept)
 225:/usr/include/c++/7/bits/stl_vector.h **** #endif
GAS LISTING /tmp/ccTfuPTI.s 			page 14


 226:/usr/include/c++/7/bits/stl_vector.h **** 
 227:/usr/include/c++/7/bits/stl_vector.h ****       typedef _Vector_base<_Tp, _Alloc>			_Base;
 228:/usr/include/c++/7/bits/stl_vector.h ****       typedef typename _Base::_Tp_alloc_type		_Tp_alloc_type;
 229:/usr/include/c++/7/bits/stl_vector.h ****       typedef __gnu_cxx::__alloc_traits<_Tp_alloc_type>	_Alloc_traits;
 230:/usr/include/c++/7/bits/stl_vector.h **** 
 231:/usr/include/c++/7/bits/stl_vector.h ****     public:
 232:/usr/include/c++/7/bits/stl_vector.h ****       typedef _Tp					value_type;
 233:/usr/include/c++/7/bits/stl_vector.h ****       typedef typename _Base::pointer			pointer;
 234:/usr/include/c++/7/bits/stl_vector.h ****       typedef typename _Alloc_traits::const_pointer	const_pointer;
 235:/usr/include/c++/7/bits/stl_vector.h ****       typedef typename _Alloc_traits::reference		reference;
 236:/usr/include/c++/7/bits/stl_vector.h ****       typedef typename _Alloc_traits::const_reference	const_reference;
 237:/usr/include/c++/7/bits/stl_vector.h ****       typedef __gnu_cxx::__normal_iterator<pointer, vector> iterator;
 238:/usr/include/c++/7/bits/stl_vector.h ****       typedef __gnu_cxx::__normal_iterator<const_pointer, vector>
 239:/usr/include/c++/7/bits/stl_vector.h ****       const_iterator;
 240:/usr/include/c++/7/bits/stl_vector.h ****       typedef std::reverse_iterator<const_iterator>	const_reverse_iterator;
 241:/usr/include/c++/7/bits/stl_vector.h ****       typedef std::reverse_iterator<iterator>		reverse_iterator;
 242:/usr/include/c++/7/bits/stl_vector.h ****       typedef size_t					size_type;
 243:/usr/include/c++/7/bits/stl_vector.h ****       typedef ptrdiff_t					difference_type;
 244:/usr/include/c++/7/bits/stl_vector.h ****       typedef _Alloc					allocator_type;
 245:/usr/include/c++/7/bits/stl_vector.h **** 
 246:/usr/include/c++/7/bits/stl_vector.h ****     protected:
 247:/usr/include/c++/7/bits/stl_vector.h ****       using _Base::_M_allocate;
 248:/usr/include/c++/7/bits/stl_vector.h ****       using _Base::_M_deallocate;
 249:/usr/include/c++/7/bits/stl_vector.h ****       using _Base::_M_impl;
 250:/usr/include/c++/7/bits/stl_vector.h ****       using _Base::_M_get_Tp_allocator;
 251:/usr/include/c++/7/bits/stl_vector.h **** 
 252:/usr/include/c++/7/bits/stl_vector.h ****     public:
 253:/usr/include/c++/7/bits/stl_vector.h ****       // [23.2.4.1] construct/copy/destroy
 254:/usr/include/c++/7/bits/stl_vector.h ****       // (assign() and get_allocator() are also listed in this section)
 255:/usr/include/c++/7/bits/stl_vector.h **** 
 256:/usr/include/c++/7/bits/stl_vector.h ****       /**
 257:/usr/include/c++/7/bits/stl_vector.h ****        *  @brief  Creates a %vector with no elements.
 258:/usr/include/c++/7/bits/stl_vector.h ****        */
 259:/usr/include/c++/7/bits/stl_vector.h ****       vector()
 260:/usr/include/c++/7/bits/stl_vector.h **** #if __cplusplus >= 201103L
 261:/usr/include/c++/7/bits/stl_vector.h ****       noexcept(is_nothrow_default_constructible<_Alloc>::value)
 262:/usr/include/c++/7/bits/stl_vector.h **** #endif
 263:/usr/include/c++/7/bits/stl_vector.h ****       : _Base() { }
 264:/usr/include/c++/7/bits/stl_vector.h **** 
 265:/usr/include/c++/7/bits/stl_vector.h ****       /**
 266:/usr/include/c++/7/bits/stl_vector.h ****        *  @brief  Creates a %vector with no elements.
 267:/usr/include/c++/7/bits/stl_vector.h ****        *  @param  __a  An allocator object.
 268:/usr/include/c++/7/bits/stl_vector.h ****        */
 269:/usr/include/c++/7/bits/stl_vector.h ****       explicit
 270:/usr/include/c++/7/bits/stl_vector.h ****       vector(const allocator_type& __a) _GLIBCXX_NOEXCEPT
 271:/usr/include/c++/7/bits/stl_vector.h ****       : _Base(__a) { }
 272:/usr/include/c++/7/bits/stl_vector.h **** 
 273:/usr/include/c++/7/bits/stl_vector.h **** #if __cplusplus >= 201103L
 274:/usr/include/c++/7/bits/stl_vector.h ****       /**
 275:/usr/include/c++/7/bits/stl_vector.h ****        *  @brief  Creates a %vector with default constructed elements.
 276:/usr/include/c++/7/bits/stl_vector.h ****        *  @param  __n  The number of elements to initially create.
 277:/usr/include/c++/7/bits/stl_vector.h ****        *  @param  __a  An allocator.
 278:/usr/include/c++/7/bits/stl_vector.h ****        *
 279:/usr/include/c++/7/bits/stl_vector.h ****        *  This constructor fills the %vector with @a __n default
 280:/usr/include/c++/7/bits/stl_vector.h ****        *  constructed elements.
 281:/usr/include/c++/7/bits/stl_vector.h ****        */
 282:/usr/include/c++/7/bits/stl_vector.h ****       explicit
GAS LISTING /tmp/ccTfuPTI.s 			page 15


 283:/usr/include/c++/7/bits/stl_vector.h ****       vector(size_type __n, const allocator_type& __a = allocator_type())
 284:/usr/include/c++/7/bits/stl_vector.h ****       : _Base(__n, __a)
 285:/usr/include/c++/7/bits/stl_vector.h ****       { _M_default_initialize(__n); }
 286:/usr/include/c++/7/bits/stl_vector.h **** 
 287:/usr/include/c++/7/bits/stl_vector.h ****       /**
 288:/usr/include/c++/7/bits/stl_vector.h ****        *  @brief  Creates a %vector with copies of an exemplar element.
 289:/usr/include/c++/7/bits/stl_vector.h ****        *  @param  __n  The number of elements to initially create.
 290:/usr/include/c++/7/bits/stl_vector.h ****        *  @param  __value  An element to copy.
 291:/usr/include/c++/7/bits/stl_vector.h ****        *  @param  __a  An allocator.
 292:/usr/include/c++/7/bits/stl_vector.h ****        *
 293:/usr/include/c++/7/bits/stl_vector.h ****        *  This constructor fills the %vector with @a __n copies of @a __value.
 294:/usr/include/c++/7/bits/stl_vector.h ****        */
 295:/usr/include/c++/7/bits/stl_vector.h ****       vector(size_type __n, const value_type& __value,
 296:/usr/include/c++/7/bits/stl_vector.h **** 	     const allocator_type& __a = allocator_type())
 297:/usr/include/c++/7/bits/stl_vector.h ****       : _Base(__n, __a)
 298:/usr/include/c++/7/bits/stl_vector.h ****       { _M_fill_initialize(__n, __value); }
 299:/usr/include/c++/7/bits/stl_vector.h **** #else
 300:/usr/include/c++/7/bits/stl_vector.h ****       /**
 301:/usr/include/c++/7/bits/stl_vector.h ****        *  @brief  Creates a %vector with copies of an exemplar element.
 302:/usr/include/c++/7/bits/stl_vector.h ****        *  @param  __n  The number of elements to initially create.
 303:/usr/include/c++/7/bits/stl_vector.h ****        *  @param  __value  An element to copy.
 304:/usr/include/c++/7/bits/stl_vector.h ****        *  @param  __a  An allocator.
 305:/usr/include/c++/7/bits/stl_vector.h ****        *
 306:/usr/include/c++/7/bits/stl_vector.h ****        *  This constructor fills the %vector with @a __n copies of @a __value.
 307:/usr/include/c++/7/bits/stl_vector.h ****        */
 308:/usr/include/c++/7/bits/stl_vector.h ****       explicit
 309:/usr/include/c++/7/bits/stl_vector.h ****       vector(size_type __n, const value_type& __value = value_type(),
 310:/usr/include/c++/7/bits/stl_vector.h **** 	     const allocator_type& __a = allocator_type())
 311:/usr/include/c++/7/bits/stl_vector.h ****       : _Base(__n, __a)
 312:/usr/include/c++/7/bits/stl_vector.h ****       { _M_fill_initialize(__n, __value); }
 313:/usr/include/c++/7/bits/stl_vector.h **** #endif
 314:/usr/include/c++/7/bits/stl_vector.h **** 
 315:/usr/include/c++/7/bits/stl_vector.h ****       /**
 316:/usr/include/c++/7/bits/stl_vector.h ****        *  @brief  %Vector copy constructor.
 317:/usr/include/c++/7/bits/stl_vector.h ****        *  @param  __x  A %vector of identical element and allocator types.
 318:/usr/include/c++/7/bits/stl_vector.h ****        *
 319:/usr/include/c++/7/bits/stl_vector.h ****        *  All the elements of @a __x are copied, but any unused capacity in
 320:/usr/include/c++/7/bits/stl_vector.h ****        *  @a __x  will not be copied
 321:/usr/include/c++/7/bits/stl_vector.h ****        *  (i.e. capacity() == size() in the new %vector).
 322:/usr/include/c++/7/bits/stl_vector.h ****        *
 323:/usr/include/c++/7/bits/stl_vector.h ****        *  The newly-created %vector uses a copy of the allocator object used
 324:/usr/include/c++/7/bits/stl_vector.h ****        *  by @a __x (unless the allocator traits dictate a different object).
 325:/usr/include/c++/7/bits/stl_vector.h ****        */
 326:/usr/include/c++/7/bits/stl_vector.h ****       vector(const vector& __x)
 327:/usr/include/c++/7/bits/stl_vector.h ****       : _Base(__x.size(),
 328:/usr/include/c++/7/bits/stl_vector.h **** 	_Alloc_traits::_S_select_on_copy(__x._M_get_Tp_allocator()))
 329:/usr/include/c++/7/bits/stl_vector.h ****       {
 330:/usr/include/c++/7/bits/stl_vector.h **** 	this->_M_impl._M_finish =
 331:/usr/include/c++/7/bits/stl_vector.h **** 	  std::__uninitialized_copy_a(__x.begin(), __x.end(),
 332:/usr/include/c++/7/bits/stl_vector.h **** 				      this->_M_impl._M_start,
 333:/usr/include/c++/7/bits/stl_vector.h **** 				      _M_get_Tp_allocator());
 334:/usr/include/c++/7/bits/stl_vector.h ****       }
 335:/usr/include/c++/7/bits/stl_vector.h **** 
 336:/usr/include/c++/7/bits/stl_vector.h **** #if __cplusplus >= 201103L
 337:/usr/include/c++/7/bits/stl_vector.h ****       /**
 338:/usr/include/c++/7/bits/stl_vector.h ****        *  @brief  %Vector move constructor.
 339:/usr/include/c++/7/bits/stl_vector.h ****        *  @param  __x  A %vector of identical element and allocator types.
GAS LISTING /tmp/ccTfuPTI.s 			page 16


 340:/usr/include/c++/7/bits/stl_vector.h ****        *
 341:/usr/include/c++/7/bits/stl_vector.h ****        *  The newly-created %vector contains the exact contents of @a __x.
 342:/usr/include/c++/7/bits/stl_vector.h ****        *  The contents of @a __x are a valid, but unspecified %vector.
 343:/usr/include/c++/7/bits/stl_vector.h ****        */
 344:/usr/include/c++/7/bits/stl_vector.h ****       vector(vector&& __x) noexcept
 345:/usr/include/c++/7/bits/stl_vector.h ****       : _Base(std::move(__x)) { }
 346:/usr/include/c++/7/bits/stl_vector.h **** 
 347:/usr/include/c++/7/bits/stl_vector.h ****       /// Copy constructor with alternative allocator
 348:/usr/include/c++/7/bits/stl_vector.h ****       vector(const vector& __x, const allocator_type& __a)
 349:/usr/include/c++/7/bits/stl_vector.h ****       : _Base(__x.size(), __a)
 350:/usr/include/c++/7/bits/stl_vector.h ****       {
 351:/usr/include/c++/7/bits/stl_vector.h **** 	this->_M_impl._M_finish =
 352:/usr/include/c++/7/bits/stl_vector.h **** 	  std::__uninitialized_copy_a(__x.begin(), __x.end(),
 353:/usr/include/c++/7/bits/stl_vector.h **** 				      this->_M_impl._M_start,
 354:/usr/include/c++/7/bits/stl_vector.h **** 				      _M_get_Tp_allocator());
 355:/usr/include/c++/7/bits/stl_vector.h ****       }
 356:/usr/include/c++/7/bits/stl_vector.h **** 
 357:/usr/include/c++/7/bits/stl_vector.h ****       /// Move constructor with alternative allocator
 358:/usr/include/c++/7/bits/stl_vector.h ****       vector(vector&& __rv, const allocator_type& __m)
 359:/usr/include/c++/7/bits/stl_vector.h ****       noexcept(_Alloc_traits::_S_always_equal())
 360:/usr/include/c++/7/bits/stl_vector.h ****       : _Base(std::move(__rv), __m)
 361:/usr/include/c++/7/bits/stl_vector.h ****       {
 362:/usr/include/c++/7/bits/stl_vector.h **** 	if (__rv.get_allocator() != __m)
 363:/usr/include/c++/7/bits/stl_vector.h **** 	  {
 364:/usr/include/c++/7/bits/stl_vector.h **** 	    this->_M_impl._M_finish =
 365:/usr/include/c++/7/bits/stl_vector.h **** 	      std::__uninitialized_move_a(__rv.begin(), __rv.end(),
 366:/usr/include/c++/7/bits/stl_vector.h **** 					  this->_M_impl._M_start,
 367:/usr/include/c++/7/bits/stl_vector.h **** 					  _M_get_Tp_allocator());
 368:/usr/include/c++/7/bits/stl_vector.h **** 	    __rv.clear();
 369:/usr/include/c++/7/bits/stl_vector.h **** 	  }
 370:/usr/include/c++/7/bits/stl_vector.h ****       }
 371:/usr/include/c++/7/bits/stl_vector.h **** 
 372:/usr/include/c++/7/bits/stl_vector.h ****       /**
 373:/usr/include/c++/7/bits/stl_vector.h ****        *  @brief  Builds a %vector from an initializer list.
 374:/usr/include/c++/7/bits/stl_vector.h ****        *  @param  __l  An initializer_list.
 375:/usr/include/c++/7/bits/stl_vector.h ****        *  @param  __a  An allocator.
 376:/usr/include/c++/7/bits/stl_vector.h ****        *
 377:/usr/include/c++/7/bits/stl_vector.h ****        *  Create a %vector consisting of copies of the elements in the
 378:/usr/include/c++/7/bits/stl_vector.h ****        *  initializer_list @a __l.
 379:/usr/include/c++/7/bits/stl_vector.h ****        *
 380:/usr/include/c++/7/bits/stl_vector.h ****        *  This will call the element type's copy constructor N times
 381:/usr/include/c++/7/bits/stl_vector.h ****        *  (where N is @a __l.size()) and do no memory reallocation.
 382:/usr/include/c++/7/bits/stl_vector.h ****        */
 383:/usr/include/c++/7/bits/stl_vector.h ****       vector(initializer_list<value_type> __l,
 384:/usr/include/c++/7/bits/stl_vector.h **** 	     const allocator_type& __a = allocator_type())
 385:/usr/include/c++/7/bits/stl_vector.h ****       : _Base(__a)
 386:/usr/include/c++/7/bits/stl_vector.h ****       {
 387:/usr/include/c++/7/bits/stl_vector.h **** 	_M_range_initialize(__l.begin(), __l.end(),
 388:/usr/include/c++/7/bits/stl_vector.h **** 			    random_access_iterator_tag());
 389:/usr/include/c++/7/bits/stl_vector.h ****       }
 390:/usr/include/c++/7/bits/stl_vector.h **** #endif
 391:/usr/include/c++/7/bits/stl_vector.h **** 
 392:/usr/include/c++/7/bits/stl_vector.h ****       /**
 393:/usr/include/c++/7/bits/stl_vector.h ****        *  @brief  Builds a %vector from a range.
 394:/usr/include/c++/7/bits/stl_vector.h ****        *  @param  __first  An input iterator.
 395:/usr/include/c++/7/bits/stl_vector.h ****        *  @param  __last  An input iterator.
 396:/usr/include/c++/7/bits/stl_vector.h ****        *  @param  __a  An allocator.
GAS LISTING /tmp/ccTfuPTI.s 			page 17


 397:/usr/include/c++/7/bits/stl_vector.h ****        *
 398:/usr/include/c++/7/bits/stl_vector.h ****        *  Create a %vector consisting of copies of the elements from
 399:/usr/include/c++/7/bits/stl_vector.h ****        *  [first,last).
 400:/usr/include/c++/7/bits/stl_vector.h ****        *
 401:/usr/include/c++/7/bits/stl_vector.h ****        *  If the iterators are forward, bidirectional, or
 402:/usr/include/c++/7/bits/stl_vector.h ****        *  random-access, then this will call the elements' copy
 403:/usr/include/c++/7/bits/stl_vector.h ****        *  constructor N times (where N is distance(first,last)) and do
 404:/usr/include/c++/7/bits/stl_vector.h ****        *  no memory reallocation.  But if only input iterators are
 405:/usr/include/c++/7/bits/stl_vector.h ****        *  used, then this will do at most 2N calls to the copy
 406:/usr/include/c++/7/bits/stl_vector.h ****        *  constructor, and logN memory reallocations.
 407:/usr/include/c++/7/bits/stl_vector.h ****        */
 408:/usr/include/c++/7/bits/stl_vector.h **** #if __cplusplus >= 201103L
 409:/usr/include/c++/7/bits/stl_vector.h ****       template<typename _InputIterator,
 410:/usr/include/c++/7/bits/stl_vector.h **** 	       typename = std::_RequireInputIter<_InputIterator>>
 411:/usr/include/c++/7/bits/stl_vector.h **** 	vector(_InputIterator __first, _InputIterator __last,
 412:/usr/include/c++/7/bits/stl_vector.h **** 	       const allocator_type& __a = allocator_type())
 413:/usr/include/c++/7/bits/stl_vector.h **** 	: _Base(__a)
 414:/usr/include/c++/7/bits/stl_vector.h **** 	{ _M_initialize_dispatch(__first, __last, __false_type()); }
 415:/usr/include/c++/7/bits/stl_vector.h **** #else
 416:/usr/include/c++/7/bits/stl_vector.h ****       template<typename _InputIterator>
 417:/usr/include/c++/7/bits/stl_vector.h **** 	vector(_InputIterator __first, _InputIterator __last,
 418:/usr/include/c++/7/bits/stl_vector.h **** 	       const allocator_type& __a = allocator_type())
 419:/usr/include/c++/7/bits/stl_vector.h **** 	: _Base(__a)
 420:/usr/include/c++/7/bits/stl_vector.h **** 	{
 421:/usr/include/c++/7/bits/stl_vector.h **** 	  // Check whether it's an integral type.  If so, it's not an iterator.
 422:/usr/include/c++/7/bits/stl_vector.h **** 	  typedef typename std::__is_integer<_InputIterator>::__type _Integral;
 423:/usr/include/c++/7/bits/stl_vector.h **** 	  _M_initialize_dispatch(__first, __last, _Integral());
 424:/usr/include/c++/7/bits/stl_vector.h **** 	}
 425:/usr/include/c++/7/bits/stl_vector.h **** #endif
 426:/usr/include/c++/7/bits/stl_vector.h **** 
 427:/usr/include/c++/7/bits/stl_vector.h ****       /**
 428:/usr/include/c++/7/bits/stl_vector.h ****        *  The dtor only erases the elements, and note that if the
 429:/usr/include/c++/7/bits/stl_vector.h ****        *  elements themselves are pointers, the pointed-to memory is
 430:/usr/include/c++/7/bits/stl_vector.h ****        *  not touched in any way.  Managing the pointer is the user's
 431:/usr/include/c++/7/bits/stl_vector.h ****        *  responsibility.
 432:/usr/include/c++/7/bits/stl_vector.h ****        */
 433:/usr/include/c++/7/bits/stl_vector.h ****       ~vector() _GLIBCXX_NOEXCEPT
 434:/usr/include/c++/7/bits/stl_vector.h ****       { std::_Destroy(this->_M_impl._M_start, this->_M_impl._M_finish,
  50              		.loc 3 434 0
  51 0000 488B3F   		movq	(%rdi), %rdi
  52              	.LVL3:
  53              	.LBB1570:
  54              	.LBB1571:
  55              	.LBB1572:
 179:/usr/include/c++/7/bits/stl_vector.h **** 	  _Tr::deallocate(_M_impl, __p, __n);
  56              		.loc 3 179 0
  57 0003 4885FF   		testq	%rdi, %rdi
  58 0006 740E     		je	.L6
  59              	.LBE1572:
  60              	.LBE1571:
  61              	.LBE1570:
  62              	.LBE1569:
  63              	.LBE1568:
  64              		.loc 2 52 0
  65 0008 4883EC08 		subq	$8, %rsp
  66              		.cfi_def_cfa_offset 16
  67              	.LVL4:
GAS LISTING /tmp/ccTfuPTI.s 			page 18


  68              	.LBB1580:
  69              	.LBB1579:
  70              	.LBB1578:
  71              	.LBB1577:
  72              	.LBB1576:
  73              	.LBB1573:
  74              	.LBB1574:
  75              	.LBB1575:
  76              		.file 4 "/usr/include/c++/7/ext/new_allocator.h"
   1:/usr/include/c++/7/ext/new_allocator.h **** // Allocator that wraps operator new -*- C++ -*-
   2:/usr/include/c++/7/ext/new_allocator.h **** 
   3:/usr/include/c++/7/ext/new_allocator.h **** // Copyright (C) 2001-2017 Free Software Foundation, Inc.
   4:/usr/include/c++/7/ext/new_allocator.h **** //
   5:/usr/include/c++/7/ext/new_allocator.h **** // This file is part of the GNU ISO C++ Library.  This library is free
   6:/usr/include/c++/7/ext/new_allocator.h **** // software; you can redistribute it and/or modify it under the
   7:/usr/include/c++/7/ext/new_allocator.h **** // terms of the GNU General Public License as published by the
   8:/usr/include/c++/7/ext/new_allocator.h **** // Free Software Foundation; either version 3, or (at your option)
   9:/usr/include/c++/7/ext/new_allocator.h **** // any later version.
  10:/usr/include/c++/7/ext/new_allocator.h **** 
  11:/usr/include/c++/7/ext/new_allocator.h **** // This library is distributed in the hope that it will be useful,
  12:/usr/include/c++/7/ext/new_allocator.h **** // but WITHOUT ANY WARRANTY; without even the implied warranty of
  13:/usr/include/c++/7/ext/new_allocator.h **** // MERCHANTABILITY or FITNESS FOR A PARTICULAR PURPOSE.  See the
  14:/usr/include/c++/7/ext/new_allocator.h **** // GNU General Public License for more details.
  15:/usr/include/c++/7/ext/new_allocator.h **** 
  16:/usr/include/c++/7/ext/new_allocator.h **** // Under Section 7 of GPL version 3, you are granted additional
  17:/usr/include/c++/7/ext/new_allocator.h **** // permissions described in the GCC Runtime Library Exception, version
  18:/usr/include/c++/7/ext/new_allocator.h **** // 3.1, as published by the Free Software Foundation.
  19:/usr/include/c++/7/ext/new_allocator.h **** 
  20:/usr/include/c++/7/ext/new_allocator.h **** // You should have received a copy of the GNU General Public License and
  21:/usr/include/c++/7/ext/new_allocator.h **** // a copy of the GCC Runtime Library Exception along with this program;
  22:/usr/include/c++/7/ext/new_allocator.h **** // see the files COPYING3 and COPYING.RUNTIME respectively.  If not, see
  23:/usr/include/c++/7/ext/new_allocator.h **** // <http://www.gnu.org/licenses/>.
  24:/usr/include/c++/7/ext/new_allocator.h **** 
  25:/usr/include/c++/7/ext/new_allocator.h **** /** @file ext/new_allocator.h
  26:/usr/include/c++/7/ext/new_allocator.h ****  *  This file is a GNU extension to the Standard C++ Library.
  27:/usr/include/c++/7/ext/new_allocator.h ****  */
  28:/usr/include/c++/7/ext/new_allocator.h **** 
  29:/usr/include/c++/7/ext/new_allocator.h **** #ifndef _NEW_ALLOCATOR_H
  30:/usr/include/c++/7/ext/new_allocator.h **** #define _NEW_ALLOCATOR_H 1
  31:/usr/include/c++/7/ext/new_allocator.h **** 
  32:/usr/include/c++/7/ext/new_allocator.h **** #include <bits/c++config.h>
  33:/usr/include/c++/7/ext/new_allocator.h **** #include <new>
  34:/usr/include/c++/7/ext/new_allocator.h **** #include <bits/functexcept.h>
  35:/usr/include/c++/7/ext/new_allocator.h **** #include <bits/move.h>
  36:/usr/include/c++/7/ext/new_allocator.h **** #if __cplusplus >= 201103L
  37:/usr/include/c++/7/ext/new_allocator.h **** #include <type_traits>
  38:/usr/include/c++/7/ext/new_allocator.h **** #endif
  39:/usr/include/c++/7/ext/new_allocator.h **** 
  40:/usr/include/c++/7/ext/new_allocator.h **** namespace __gnu_cxx _GLIBCXX_VISIBILITY(default)
  41:/usr/include/c++/7/ext/new_allocator.h **** {
  42:/usr/include/c++/7/ext/new_allocator.h **** _GLIBCXX_BEGIN_NAMESPACE_VERSION
  43:/usr/include/c++/7/ext/new_allocator.h **** 
  44:/usr/include/c++/7/ext/new_allocator.h ****   using std::size_t;
  45:/usr/include/c++/7/ext/new_allocator.h ****   using std::ptrdiff_t;
  46:/usr/include/c++/7/ext/new_allocator.h **** 
  47:/usr/include/c++/7/ext/new_allocator.h ****   /**
  48:/usr/include/c++/7/ext/new_allocator.h ****    *  @brief  An allocator that uses global new, as per [20.4].
GAS LISTING /tmp/ccTfuPTI.s 			page 19


  49:/usr/include/c++/7/ext/new_allocator.h ****    *  @ingroup allocators
  50:/usr/include/c++/7/ext/new_allocator.h ****    *
  51:/usr/include/c++/7/ext/new_allocator.h ****    *  This is precisely the allocator defined in the C++ Standard.
  52:/usr/include/c++/7/ext/new_allocator.h ****    *    - all allocation calls operator new
  53:/usr/include/c++/7/ext/new_allocator.h ****    *    - all deallocation calls operator delete
  54:/usr/include/c++/7/ext/new_allocator.h ****    *
  55:/usr/include/c++/7/ext/new_allocator.h ****    *  @tparam  _Tp  Type of allocated object.
  56:/usr/include/c++/7/ext/new_allocator.h ****    */
  57:/usr/include/c++/7/ext/new_allocator.h ****   template<typename _Tp>
  58:/usr/include/c++/7/ext/new_allocator.h ****     class new_allocator
  59:/usr/include/c++/7/ext/new_allocator.h ****     {
  60:/usr/include/c++/7/ext/new_allocator.h ****     public:
  61:/usr/include/c++/7/ext/new_allocator.h ****       typedef size_t     size_type;
  62:/usr/include/c++/7/ext/new_allocator.h ****       typedef ptrdiff_t  difference_type;
  63:/usr/include/c++/7/ext/new_allocator.h ****       typedef _Tp*       pointer;
  64:/usr/include/c++/7/ext/new_allocator.h ****       typedef const _Tp* const_pointer;
  65:/usr/include/c++/7/ext/new_allocator.h ****       typedef _Tp&       reference;
  66:/usr/include/c++/7/ext/new_allocator.h ****       typedef const _Tp& const_reference;
  67:/usr/include/c++/7/ext/new_allocator.h ****       typedef _Tp        value_type;
  68:/usr/include/c++/7/ext/new_allocator.h **** 
  69:/usr/include/c++/7/ext/new_allocator.h ****       template<typename _Tp1>
  70:/usr/include/c++/7/ext/new_allocator.h **** 	struct rebind
  71:/usr/include/c++/7/ext/new_allocator.h **** 	{ typedef new_allocator<_Tp1> other; };
  72:/usr/include/c++/7/ext/new_allocator.h **** 
  73:/usr/include/c++/7/ext/new_allocator.h **** #if __cplusplus >= 201103L
  74:/usr/include/c++/7/ext/new_allocator.h ****       // _GLIBCXX_RESOLVE_LIB_DEFECTS
  75:/usr/include/c++/7/ext/new_allocator.h ****       // 2103. propagate_on_container_move_assignment
  76:/usr/include/c++/7/ext/new_allocator.h ****       typedef std::true_type propagate_on_container_move_assignment;
  77:/usr/include/c++/7/ext/new_allocator.h **** #endif
  78:/usr/include/c++/7/ext/new_allocator.h **** 
  79:/usr/include/c++/7/ext/new_allocator.h ****       new_allocator() _GLIBCXX_USE_NOEXCEPT { }
  80:/usr/include/c++/7/ext/new_allocator.h **** 
  81:/usr/include/c++/7/ext/new_allocator.h ****       new_allocator(const new_allocator&) _GLIBCXX_USE_NOEXCEPT { }
  82:/usr/include/c++/7/ext/new_allocator.h **** 
  83:/usr/include/c++/7/ext/new_allocator.h ****       template<typename _Tp1>
  84:/usr/include/c++/7/ext/new_allocator.h **** 	new_allocator(const new_allocator<_Tp1>&) _GLIBCXX_USE_NOEXCEPT { }
  85:/usr/include/c++/7/ext/new_allocator.h **** 
  86:/usr/include/c++/7/ext/new_allocator.h ****       ~new_allocator() _GLIBCXX_USE_NOEXCEPT { }
  87:/usr/include/c++/7/ext/new_allocator.h **** 
  88:/usr/include/c++/7/ext/new_allocator.h ****       pointer
  89:/usr/include/c++/7/ext/new_allocator.h ****       address(reference __x) const _GLIBCXX_NOEXCEPT
  90:/usr/include/c++/7/ext/new_allocator.h ****       { return std::__addressof(__x); }
  91:/usr/include/c++/7/ext/new_allocator.h **** 
  92:/usr/include/c++/7/ext/new_allocator.h ****       const_pointer
  93:/usr/include/c++/7/ext/new_allocator.h ****       address(const_reference __x) const _GLIBCXX_NOEXCEPT
  94:/usr/include/c++/7/ext/new_allocator.h ****       { return std::__addressof(__x); }
  95:/usr/include/c++/7/ext/new_allocator.h **** 
  96:/usr/include/c++/7/ext/new_allocator.h ****       // NB: __n is permitted to be 0.  The C++ standard says nothing
  97:/usr/include/c++/7/ext/new_allocator.h ****       // about what the return value is when __n == 0.
  98:/usr/include/c++/7/ext/new_allocator.h ****       pointer
  99:/usr/include/c++/7/ext/new_allocator.h ****       allocate(size_type __n, const void* = static_cast<const void*>(0))
 100:/usr/include/c++/7/ext/new_allocator.h ****       {
 101:/usr/include/c++/7/ext/new_allocator.h **** 	if (__n > this->max_size())
 102:/usr/include/c++/7/ext/new_allocator.h **** 	  std::__throw_bad_alloc();
 103:/usr/include/c++/7/ext/new_allocator.h **** 
 104:/usr/include/c++/7/ext/new_allocator.h **** #if __cpp_aligned_new
 105:/usr/include/c++/7/ext/new_allocator.h **** 	if (alignof(_Tp) > __STDCPP_DEFAULT_NEW_ALIGNMENT__)
GAS LISTING /tmp/ccTfuPTI.s 			page 20


 106:/usr/include/c++/7/ext/new_allocator.h **** 	  {
 107:/usr/include/c++/7/ext/new_allocator.h **** 	    std::align_val_t __al = std::align_val_t(alignof(_Tp));
 108:/usr/include/c++/7/ext/new_allocator.h **** 	    return static_cast<_Tp*>(::operator new(__n * sizeof(_Tp), __al));
 109:/usr/include/c++/7/ext/new_allocator.h **** 	  }
 110:/usr/include/c++/7/ext/new_allocator.h **** #endif
 111:/usr/include/c++/7/ext/new_allocator.h **** 	return static_cast<_Tp*>(::operator new(__n * sizeof(_Tp)));
 112:/usr/include/c++/7/ext/new_allocator.h ****       }
 113:/usr/include/c++/7/ext/new_allocator.h **** 
 114:/usr/include/c++/7/ext/new_allocator.h ****       // __p is not permitted to be a null pointer.
 115:/usr/include/c++/7/ext/new_allocator.h ****       void
 116:/usr/include/c++/7/ext/new_allocator.h ****       deallocate(pointer __p, size_type)
 117:/usr/include/c++/7/ext/new_allocator.h ****       {
 118:/usr/include/c++/7/ext/new_allocator.h **** #if __cpp_aligned_new
 119:/usr/include/c++/7/ext/new_allocator.h **** 	if (alignof(_Tp) > __STDCPP_DEFAULT_NEW_ALIGNMENT__)
 120:/usr/include/c++/7/ext/new_allocator.h **** 	  {
 121:/usr/include/c++/7/ext/new_allocator.h **** 	    ::operator delete(__p, std::align_val_t(alignof(_Tp)));
 122:/usr/include/c++/7/ext/new_allocator.h **** 	    return;
 123:/usr/include/c++/7/ext/new_allocator.h **** 	  }
 124:/usr/include/c++/7/ext/new_allocator.h **** #endif
 125:/usr/include/c++/7/ext/new_allocator.h **** 	::operator delete(__p);
  77              		.loc 4 125 0
  78 000c E8000000 		call	_ZdlPv@PLT
  78      00
  79              	.LVL5:
  80              	.LBE1575:
  81              	.LBE1574:
  82              	.LBE1573:
  83              	.LBE1576:
  84              	.LBE1577:
  85              	.LBE1578:
  86              	.LBE1579:
  87              	.LBE1580:
  88              		.loc 2 52 0
  89 0011 4883C408 		addq	$8, %rsp
  90              		.cfi_def_cfa_offset 8
  91 0015 C3       		ret
  92              	.LVL6:
  93              	.L6:
  94 0016 F3C3     		rep ret
  95              		.cfi_endproc
  96              	.LFE4294:
  97              		.size	_ZN5flann13DynamicBitsetD2Ev, .-_ZN5flann13DynamicBitsetD2Ev
  98              		.weak	_ZN5flann13DynamicBitsetD1Ev
  99              		.set	_ZN5flann13DynamicBitsetD1Ev,_ZN5flann13DynamicBitsetD2Ev
 100              		.section	.text._ZN5flann13KNNResultSet2IfED2Ev,"axG",@progbits,_ZN5flann13KNNResultSet2IfED5Ev,com
 101              		.align 2
 102              		.weak	_ZN5flann13KNNResultSet2IfED2Ev
 103              		.type	_ZN5flann13KNNResultSet2IfED2Ev, @function
 104              	_ZN5flann13KNNResultSet2IfED2Ev:
 105              	.LFB4648:
 317:/home/junholee/git/flann/src/cpp/flann/util/result_set.h ****     {
 106              		.loc 1 317 0
 107              		.cfi_startproc
 108              	.LVL7:
 109              	.LBB1581:
 319:/home/junholee/git/flann/src/cpp/flann/util/result_set.h **** 
 110              		.loc 1 319 0
GAS LISTING /tmp/ccTfuPTI.s 			page 21


 111 0000 488D0500 		leaq	16+_ZTVN5flann13KNNResultSet2IfEE(%rip), %rax
 111      000000
 112 0007 488907   		movq	%rax, (%rdi)
 113              	.LVL8:
 114              	.LBB1582:
 115              	.LBB1583:
 116              		.loc 3 434 0
 117 000a 488B7F18 		movq	24(%rdi), %rdi
 118              	.LVL9:
 119              	.LBB1584:
 120              	.LBB1585:
 121              	.LBB1586:
 179:/usr/include/c++/7/bits/stl_vector.h **** 	  _Tr::deallocate(_M_impl, __p, __n);
 122              		.loc 3 179 0
 123 000e 4885FF   		testq	%rdi, %rdi
 124 0011 740E     		je	.L12
 125              	.LBE1586:
 126              	.LBE1585:
 127              	.LBE1584:
 128              	.LBE1583:
 129              	.LBE1582:
 130              	.LBE1581:
 317:/home/junholee/git/flann/src/cpp/flann/util/result_set.h ****     {
 131              		.loc 1 317 0
 132 0013 4883EC08 		subq	$8, %rsp
 133              		.cfi_def_cfa_offset 16
 134              	.LVL10:
 135              	.LBB1595:
 136              	.LBB1594:
 137              	.LBB1593:
 138              	.LBB1592:
 139              	.LBB1591:
 140              	.LBB1590:
 141              	.LBB1587:
 142              	.LBB1588:
 143              	.LBB1589:
 144              		.loc 4 125 0
 145 0017 E8000000 		call	_ZdlPv@PLT
 145      00
 146              	.LVL11:
 147              	.LBE1589:
 148              	.LBE1588:
 149              	.LBE1587:
 150              	.LBE1590:
 151              	.LBE1591:
 152              	.LBE1592:
 153              	.LBE1593:
 154              	.LBE1594:
 155              	.LBE1595:
 319:/home/junholee/git/flann/src/cpp/flann/util/result_set.h **** 
 156              		.loc 1 319 0
 157 001c 4883C408 		addq	$8, %rsp
 158              		.cfi_def_cfa_offset 8
 159 0020 C3       		ret
 160              	.LVL12:
 161              	.L12:
 162 0021 F3C3     		rep ret
GAS LISTING /tmp/ccTfuPTI.s 			page 22


 163              		.cfi_endproc
 164              	.LFE4648:
 165              		.size	_ZN5flann13KNNResultSet2IfED2Ev, .-_ZN5flann13KNNResultSet2IfED2Ev
 166              		.weak	_ZN5flann13KNNResultSet2IfED1Ev
 167              		.set	_ZN5flann13KNNResultSet2IfED1Ev,_ZN5flann13KNNResultSet2IfED2Ev
 168              		.section	.text._ZN5flann13KNNResultSet2IfED0Ev,"axG",@progbits,_ZN5flann13KNNResultSet2IfED5Ev,com
 169              		.align 2
 170              		.weak	_ZN5flann13KNNResultSet2IfED0Ev
 171              		.type	_ZN5flann13KNNResultSet2IfED0Ev, @function
 172              	_ZN5flann13KNNResultSet2IfED0Ev:
 173              	.LFB4650:
 317:/home/junholee/git/flann/src/cpp/flann/util/result_set.h ****     {
 174              		.loc 1 317 0
 175              		.cfi_startproc
 176              	.LVL13:
 177 0000 53       		pushq	%rbx
 178              		.cfi_def_cfa_offset 16
 179              		.cfi_offset 3, -16
 180 0001 4889FB   		movq	%rdi, %rbx
 181              	.LVL14:
 182              	.LBB1596:
 183              	.LBB1597:
 319:/home/junholee/git/flann/src/cpp/flann/util/result_set.h **** 
 184              		.loc 1 319 0
 185 0004 488D0500 		leaq	16+_ZTVN5flann13KNNResultSet2IfEE(%rip), %rax
 185      000000
 186 000b 488907   		movq	%rax, (%rdi)
 187              	.LVL15:
 188              	.LBB1598:
 189              	.LBB1599:
 190              		.loc 3 434 0
 191 000e 488B7F18 		movq	24(%rdi), %rdi
 192              	.LVL16:
 193              	.LBB1600:
 194              	.LBB1601:
 195              	.LBB1602:
 179:/usr/include/c++/7/bits/stl_vector.h **** 	  _Tr::deallocate(_M_impl, __p, __n);
 196              		.loc 3 179 0
 197 0012 4885FF   		testq	%rdi, %rdi
 198 0015 7405     		je	.L16
 199              	.LVL17:
 200              	.LBB1603:
 201              	.LBB1604:
 202              	.LBB1605:
 203              		.loc 4 125 0
 204 0017 E8000000 		call	_ZdlPv@PLT
 204      00
 205              	.LVL18:
 206              	.L16:
 207              	.LBE1605:
 208              	.LBE1604:
 209              	.LBE1603:
 210              	.LBE1602:
 211              	.LBE1601:
 212              	.LBE1600:
 213              	.LBE1599:
 214              	.LBE1598:
GAS LISTING /tmp/ccTfuPTI.s 			page 23


 215              	.LBE1597:
 216              	.LBE1596:
 319:/home/junholee/git/flann/src/cpp/flann/util/result_set.h **** 
 217              		.loc 1 319 0
 218 001c BE380000 		movl	$56, %esi
 218      00
 219 0021 4889DF   		movq	%rbx, %rdi
 220 0024 E8000000 		call	_ZdlPvm@PLT
 220      00
 221              	.LVL19:
 222 0029 5B       		popq	%rbx
 223              		.cfi_def_cfa_offset 8
 224              	.LVL20:
 225 002a C3       		ret
 226              		.cfi_endproc
 227              	.LFE4650:
 228              		.size	_ZN5flann13KNNResultSet2IfED0Ev, .-_ZN5flann13KNNResultSet2IfED0Ev
 229              		.section	.text._ZNSt6vectorIP4NodeSaIS1_EED2Ev,"axG",@progbits,_ZNSt6vectorIP4NodeSaIS1_EED5Ev,com
 230              		.align 2
 231              		.weak	_ZNSt6vectorIP4NodeSaIS1_EED2Ev
 232              		.type	_ZNSt6vectorIP4NodeSaIS1_EED2Ev, @function
 233              	_ZNSt6vectorIP4NodeSaIS1_EED2Ev:
 234              	.LFB5413:
 433:/usr/include/c++/7/bits/stl_vector.h ****       { std::_Destroy(this->_M_impl._M_start, this->_M_impl._M_finish,
 235              		.loc 3 433 0
 236              		.cfi_startproc
 237              	.LVL21:
 238              	.LBB1606:
 239              		.loc 3 434 0
 240 0000 488B3F   		movq	(%rdi), %rdi
 241              	.LVL22:
 242              	.LBB1607:
 243              	.LBB1608:
 244              	.LBB1609:
 179:/usr/include/c++/7/bits/stl_vector.h **** 	  _Tr::deallocate(_M_impl, __p, __n);
 245              		.loc 3 179 0
 246 0003 4885FF   		testq	%rdi, %rdi
 247 0006 740E     		je	.L21
 248              	.LBE1609:
 249              	.LBE1608:
 250              	.LBE1607:
 251              	.LBE1606:
 433:/usr/include/c++/7/bits/stl_vector.h ****       { std::_Destroy(this->_M_impl._M_start, this->_M_impl._M_finish,
 252              		.loc 3 433 0
 253 0008 4883EC08 		subq	$8, %rsp
 254              		.cfi_def_cfa_offset 16
 255              	.LVL23:
 256              	.LBB1616:
 257              	.LBB1615:
 258              	.LBB1614:
 259              	.LBB1613:
 260              	.LBB1610:
 261              	.LBB1611:
 262              	.LBB1612:
 263              		.loc 4 125 0
 264 000c E8000000 		call	_ZdlPv@PLT
 264      00
GAS LISTING /tmp/ccTfuPTI.s 			page 24


 265              	.LVL24:
 266              	.LBE1612:
 267              	.LBE1611:
 268              	.LBE1610:
 269              	.LBE1613:
 270              	.LBE1614:
 271              	.LBE1615:
 272              	.LBE1616:
 435:/usr/include/c++/7/bits/stl_vector.h **** 		      _M_get_Tp_allocator()); }
 273              		.loc 3 435 0
 274 0011 4883C408 		addq	$8, %rsp
 275              		.cfi_def_cfa_offset 8
 276 0015 C3       		ret
 277              	.LVL25:
 278              	.L21:
 279 0016 F3C3     		rep ret
 280              		.cfi_endproc
 281              	.LFE5413:
 282              		.size	_ZNSt6vectorIP4NodeSaIS1_EED2Ev, .-_ZNSt6vectorIP4NodeSaIS1_EED2Ev
 283              		.weak	_ZNSt6vectorIP4NodeSaIS1_EED1Ev
 284              		.set	_ZNSt6vectorIP4NodeSaIS1_EED1Ev,_ZNSt6vectorIP4NodeSaIS1_EED2Ev
 285              		.section	.rodata._ZNSt6vectorImSaImEE17_M_default_appendEm.str1.1,"aMS",@progbits,1
 286              	.LC0:
 287 0000 76656374 		.string	"vector::_M_default_append"
 287      6F723A3A 
 287      5F4D5F64 
 287      65666175 
 287      6C745F61 
 288              		.section	.text._ZNSt6vectorImSaImEE17_M_default_appendEm,"axG",@progbits,_ZNSt6vectorImSaImEE17_M_
 289              		.align 2
 290              		.weak	_ZNSt6vectorImSaImEE17_M_default_appendEm
 291              		.type	_ZNSt6vectorImSaImEE17_M_default_appendEm, @function
 292              	_ZNSt6vectorImSaImEE17_M_default_appendEm:
 293              	.LFB4805:
 294              		.file 5 "/usr/include/c++/7/bits/vector.tcc"
   1:/usr/include/c++/7/bits/vector.tcc **** // Vector implementation (out of line) -*- C++ -*-
   2:/usr/include/c++/7/bits/vector.tcc **** 
   3:/usr/include/c++/7/bits/vector.tcc **** // Copyright (C) 2001-2017 Free Software Foundation, Inc.
   4:/usr/include/c++/7/bits/vector.tcc **** //
   5:/usr/include/c++/7/bits/vector.tcc **** // This file is part of the GNU ISO C++ Library.  This library is free
   6:/usr/include/c++/7/bits/vector.tcc **** // software; you can redistribute it and/or modify it under the
   7:/usr/include/c++/7/bits/vector.tcc **** // terms of the GNU General Public License as published by the
   8:/usr/include/c++/7/bits/vector.tcc **** // Free Software Foundation; either version 3, or (at your option)
   9:/usr/include/c++/7/bits/vector.tcc **** // any later version.
  10:/usr/include/c++/7/bits/vector.tcc **** 
  11:/usr/include/c++/7/bits/vector.tcc **** // This library is distributed in the hope that it will be useful,
  12:/usr/include/c++/7/bits/vector.tcc **** // but WITHOUT ANY WARRANTY; without even the implied warranty of
  13:/usr/include/c++/7/bits/vector.tcc **** // MERCHANTABILITY or FITNESS FOR A PARTICULAR PURPOSE.  See the
  14:/usr/include/c++/7/bits/vector.tcc **** // GNU General Public License for more details.
  15:/usr/include/c++/7/bits/vector.tcc **** 
  16:/usr/include/c++/7/bits/vector.tcc **** // Under Section 7 of GPL version 3, you are granted additional
  17:/usr/include/c++/7/bits/vector.tcc **** // permissions described in the GCC Runtime Library Exception, version
  18:/usr/include/c++/7/bits/vector.tcc **** // 3.1, as published by the Free Software Foundation.
  19:/usr/include/c++/7/bits/vector.tcc **** 
  20:/usr/include/c++/7/bits/vector.tcc **** // You should have received a copy of the GNU General Public License and
  21:/usr/include/c++/7/bits/vector.tcc **** // a copy of the GCC Runtime Library Exception along with this program;
  22:/usr/include/c++/7/bits/vector.tcc **** // see the files COPYING3 and COPYING.RUNTIME respectively.  If not, see
GAS LISTING /tmp/ccTfuPTI.s 			page 25


  23:/usr/include/c++/7/bits/vector.tcc **** // <http://www.gnu.org/licenses/>.
  24:/usr/include/c++/7/bits/vector.tcc **** 
  25:/usr/include/c++/7/bits/vector.tcc **** /*
  26:/usr/include/c++/7/bits/vector.tcc ****  *
  27:/usr/include/c++/7/bits/vector.tcc ****  * Copyright (c) 1994
  28:/usr/include/c++/7/bits/vector.tcc ****  * Hewlett-Packard Company
  29:/usr/include/c++/7/bits/vector.tcc ****  *
  30:/usr/include/c++/7/bits/vector.tcc ****  * Permission to use, copy, modify, distribute and sell this software
  31:/usr/include/c++/7/bits/vector.tcc ****  * and its documentation for any purpose is hereby granted without fee,
  32:/usr/include/c++/7/bits/vector.tcc ****  * provided that the above copyright notice appear in all copies and
  33:/usr/include/c++/7/bits/vector.tcc ****  * that both that copyright notice and this permission notice appear
  34:/usr/include/c++/7/bits/vector.tcc ****  * in supporting documentation.  Hewlett-Packard Company makes no
  35:/usr/include/c++/7/bits/vector.tcc ****  * representations about the suitability of this software for any
  36:/usr/include/c++/7/bits/vector.tcc ****  * purpose.  It is provided "as is" without express or implied warranty.
  37:/usr/include/c++/7/bits/vector.tcc ****  *
  38:/usr/include/c++/7/bits/vector.tcc ****  *
  39:/usr/include/c++/7/bits/vector.tcc ****  * Copyright (c) 1996
  40:/usr/include/c++/7/bits/vector.tcc ****  * Silicon Graphics Computer Systems, Inc.
  41:/usr/include/c++/7/bits/vector.tcc ****  *
  42:/usr/include/c++/7/bits/vector.tcc ****  * Permission to use, copy, modify, distribute and sell this software
  43:/usr/include/c++/7/bits/vector.tcc ****  * and its documentation for any purpose is hereby granted without fee,
  44:/usr/include/c++/7/bits/vector.tcc ****  * provided that the above copyright notice appear in all copies and
  45:/usr/include/c++/7/bits/vector.tcc ****  * that both that copyright notice and this permission notice appear
  46:/usr/include/c++/7/bits/vector.tcc ****  * in supporting documentation.  Silicon Graphics makes no
  47:/usr/include/c++/7/bits/vector.tcc ****  * representations about the suitability of this  software for any
  48:/usr/include/c++/7/bits/vector.tcc ****  * purpose.  It is provided "as is" without express or implied warranty.
  49:/usr/include/c++/7/bits/vector.tcc ****  */
  50:/usr/include/c++/7/bits/vector.tcc **** 
  51:/usr/include/c++/7/bits/vector.tcc **** /** @file bits/vector.tcc
  52:/usr/include/c++/7/bits/vector.tcc ****  *  This is an internal header file, included by other library headers.
  53:/usr/include/c++/7/bits/vector.tcc ****  *  Do not attempt to use it directly. @headername{vector}
  54:/usr/include/c++/7/bits/vector.tcc ****  */
  55:/usr/include/c++/7/bits/vector.tcc **** 
  56:/usr/include/c++/7/bits/vector.tcc **** #ifndef _VECTOR_TCC
  57:/usr/include/c++/7/bits/vector.tcc **** #define _VECTOR_TCC 1
  58:/usr/include/c++/7/bits/vector.tcc **** 
  59:/usr/include/c++/7/bits/vector.tcc **** namespace std _GLIBCXX_VISIBILITY(default)
  60:/usr/include/c++/7/bits/vector.tcc **** {
  61:/usr/include/c++/7/bits/vector.tcc **** _GLIBCXX_BEGIN_NAMESPACE_CONTAINER
  62:/usr/include/c++/7/bits/vector.tcc **** 
  63:/usr/include/c++/7/bits/vector.tcc ****   template<typename _Tp, typename _Alloc>
  64:/usr/include/c++/7/bits/vector.tcc ****     void
  65:/usr/include/c++/7/bits/vector.tcc ****     vector<_Tp, _Alloc>::
  66:/usr/include/c++/7/bits/vector.tcc ****     reserve(size_type __n)
  67:/usr/include/c++/7/bits/vector.tcc ****     {
  68:/usr/include/c++/7/bits/vector.tcc ****       if (__n > this->max_size())
  69:/usr/include/c++/7/bits/vector.tcc **** 	__throw_length_error(__N("vector::reserve"));
  70:/usr/include/c++/7/bits/vector.tcc ****       if (this->capacity() < __n)
  71:/usr/include/c++/7/bits/vector.tcc **** 	{
  72:/usr/include/c++/7/bits/vector.tcc **** 	  const size_type __old_size = size();
  73:/usr/include/c++/7/bits/vector.tcc **** 	  pointer __tmp = _M_allocate_and_copy(__n,
  74:/usr/include/c++/7/bits/vector.tcc **** 	    _GLIBCXX_MAKE_MOVE_IF_NOEXCEPT_ITERATOR(this->_M_impl._M_start),
  75:/usr/include/c++/7/bits/vector.tcc **** 	    _GLIBCXX_MAKE_MOVE_IF_NOEXCEPT_ITERATOR(this->_M_impl._M_finish));
  76:/usr/include/c++/7/bits/vector.tcc **** 	  std::_Destroy(this->_M_impl._M_start, this->_M_impl._M_finish,
  77:/usr/include/c++/7/bits/vector.tcc **** 			_M_get_Tp_allocator());
  78:/usr/include/c++/7/bits/vector.tcc **** 	  _M_deallocate(this->_M_impl._M_start,
  79:/usr/include/c++/7/bits/vector.tcc **** 			this->_M_impl._M_end_of_storage
GAS LISTING /tmp/ccTfuPTI.s 			page 26


  80:/usr/include/c++/7/bits/vector.tcc **** 			- this->_M_impl._M_start);
  81:/usr/include/c++/7/bits/vector.tcc **** 	  this->_M_impl._M_start = __tmp;
  82:/usr/include/c++/7/bits/vector.tcc **** 	  this->_M_impl._M_finish = __tmp + __old_size;
  83:/usr/include/c++/7/bits/vector.tcc **** 	  this->_M_impl._M_end_of_storage = this->_M_impl._M_start + __n;
  84:/usr/include/c++/7/bits/vector.tcc **** 	}
  85:/usr/include/c++/7/bits/vector.tcc ****     }
  86:/usr/include/c++/7/bits/vector.tcc **** 
  87:/usr/include/c++/7/bits/vector.tcc **** #if __cplusplus >= 201103L
  88:/usr/include/c++/7/bits/vector.tcc ****   template<typename _Tp, typename _Alloc>
  89:/usr/include/c++/7/bits/vector.tcc ****     template<typename... _Args>
  90:/usr/include/c++/7/bits/vector.tcc **** #if __cplusplus > 201402L
  91:/usr/include/c++/7/bits/vector.tcc ****       typename vector<_Tp, _Alloc>::reference
  92:/usr/include/c++/7/bits/vector.tcc **** #else
  93:/usr/include/c++/7/bits/vector.tcc ****       void
  94:/usr/include/c++/7/bits/vector.tcc **** #endif
  95:/usr/include/c++/7/bits/vector.tcc ****       vector<_Tp, _Alloc>::
  96:/usr/include/c++/7/bits/vector.tcc ****       emplace_back(_Args&&... __args)
  97:/usr/include/c++/7/bits/vector.tcc ****       {
  98:/usr/include/c++/7/bits/vector.tcc **** 	if (this->_M_impl._M_finish != this->_M_impl._M_end_of_storage)
  99:/usr/include/c++/7/bits/vector.tcc **** 	  {
 100:/usr/include/c++/7/bits/vector.tcc **** 	    _Alloc_traits::construct(this->_M_impl, this->_M_impl._M_finish,
 101:/usr/include/c++/7/bits/vector.tcc **** 				     std::forward<_Args>(__args)...);
 102:/usr/include/c++/7/bits/vector.tcc **** 	    ++this->_M_impl._M_finish;
 103:/usr/include/c++/7/bits/vector.tcc **** 	  }
 104:/usr/include/c++/7/bits/vector.tcc **** 	else
 105:/usr/include/c++/7/bits/vector.tcc **** 	  _M_realloc_insert(end(), std::forward<_Args>(__args)...);
 106:/usr/include/c++/7/bits/vector.tcc **** #if __cplusplus > 201402L
 107:/usr/include/c++/7/bits/vector.tcc **** 	return back();
 108:/usr/include/c++/7/bits/vector.tcc **** #endif
 109:/usr/include/c++/7/bits/vector.tcc ****       }
 110:/usr/include/c++/7/bits/vector.tcc **** #endif
 111:/usr/include/c++/7/bits/vector.tcc **** 
 112:/usr/include/c++/7/bits/vector.tcc ****   template<typename _Tp, typename _Alloc>
 113:/usr/include/c++/7/bits/vector.tcc ****     typename vector<_Tp, _Alloc>::iterator
 114:/usr/include/c++/7/bits/vector.tcc ****     vector<_Tp, _Alloc>::
 115:/usr/include/c++/7/bits/vector.tcc **** #if __cplusplus >= 201103L
 116:/usr/include/c++/7/bits/vector.tcc ****     insert(const_iterator __position, const value_type& __x)
 117:/usr/include/c++/7/bits/vector.tcc **** #else
 118:/usr/include/c++/7/bits/vector.tcc ****     insert(iterator __position, const value_type& __x)
 119:/usr/include/c++/7/bits/vector.tcc **** #endif
 120:/usr/include/c++/7/bits/vector.tcc ****     {
 121:/usr/include/c++/7/bits/vector.tcc ****       const size_type __n = __position - begin();
 122:/usr/include/c++/7/bits/vector.tcc ****       if (this->_M_impl._M_finish != this->_M_impl._M_end_of_storage)
 123:/usr/include/c++/7/bits/vector.tcc **** 	if (__position == end())
 124:/usr/include/c++/7/bits/vector.tcc **** 	  {
 125:/usr/include/c++/7/bits/vector.tcc **** 	    _Alloc_traits::construct(this->_M_impl, this->_M_impl._M_finish,
 126:/usr/include/c++/7/bits/vector.tcc **** 				     __x);
 127:/usr/include/c++/7/bits/vector.tcc **** 	    ++this->_M_impl._M_finish;
 128:/usr/include/c++/7/bits/vector.tcc **** 	  }
 129:/usr/include/c++/7/bits/vector.tcc **** 	else
 130:/usr/include/c++/7/bits/vector.tcc **** 	  {
 131:/usr/include/c++/7/bits/vector.tcc **** #if __cplusplus >= 201103L
 132:/usr/include/c++/7/bits/vector.tcc **** 	    const auto __pos = begin() + (__position - cbegin());
 133:/usr/include/c++/7/bits/vector.tcc **** 	    // __x could be an existing element of this vector, so make a
 134:/usr/include/c++/7/bits/vector.tcc **** 	    // copy of it before _M_insert_aux moves elements around.
 135:/usr/include/c++/7/bits/vector.tcc **** 	    _Temporary_value __x_copy(this, __x);
 136:/usr/include/c++/7/bits/vector.tcc **** 	    _M_insert_aux(__pos, std::move(__x_copy._M_val()));
GAS LISTING /tmp/ccTfuPTI.s 			page 27


 137:/usr/include/c++/7/bits/vector.tcc **** #else
 138:/usr/include/c++/7/bits/vector.tcc **** 	    _M_insert_aux(__position, __x);
 139:/usr/include/c++/7/bits/vector.tcc **** #endif
 140:/usr/include/c++/7/bits/vector.tcc **** 	  }
 141:/usr/include/c++/7/bits/vector.tcc ****       else
 142:/usr/include/c++/7/bits/vector.tcc **** #if __cplusplus >= 201103L
 143:/usr/include/c++/7/bits/vector.tcc **** 	_M_realloc_insert(begin() + (__position - cbegin()), __x);
 144:/usr/include/c++/7/bits/vector.tcc **** #else
 145:/usr/include/c++/7/bits/vector.tcc **** 	_M_realloc_insert(__position, __x);
 146:/usr/include/c++/7/bits/vector.tcc **** #endif
 147:/usr/include/c++/7/bits/vector.tcc **** 
 148:/usr/include/c++/7/bits/vector.tcc ****       return iterator(this->_M_impl._M_start + __n);
 149:/usr/include/c++/7/bits/vector.tcc ****     }
 150:/usr/include/c++/7/bits/vector.tcc **** 
 151:/usr/include/c++/7/bits/vector.tcc ****   template<typename _Tp, typename _Alloc>
 152:/usr/include/c++/7/bits/vector.tcc ****     typename vector<_Tp, _Alloc>::iterator
 153:/usr/include/c++/7/bits/vector.tcc ****     vector<_Tp, _Alloc>::
 154:/usr/include/c++/7/bits/vector.tcc ****     _M_erase(iterator __position)
 155:/usr/include/c++/7/bits/vector.tcc ****     {
 156:/usr/include/c++/7/bits/vector.tcc ****       if (__position + 1 != end())
 157:/usr/include/c++/7/bits/vector.tcc **** 	_GLIBCXX_MOVE3(__position + 1, end(), __position);
 158:/usr/include/c++/7/bits/vector.tcc ****       --this->_M_impl._M_finish;
 159:/usr/include/c++/7/bits/vector.tcc ****       _Alloc_traits::destroy(this->_M_impl, this->_M_impl._M_finish);
 160:/usr/include/c++/7/bits/vector.tcc ****       return __position;
 161:/usr/include/c++/7/bits/vector.tcc ****     }
 162:/usr/include/c++/7/bits/vector.tcc **** 
 163:/usr/include/c++/7/bits/vector.tcc ****   template<typename _Tp, typename _Alloc>
 164:/usr/include/c++/7/bits/vector.tcc ****     typename vector<_Tp, _Alloc>::iterator
 165:/usr/include/c++/7/bits/vector.tcc ****     vector<_Tp, _Alloc>::
 166:/usr/include/c++/7/bits/vector.tcc ****     _M_erase(iterator __first, iterator __last)
 167:/usr/include/c++/7/bits/vector.tcc ****     {
 168:/usr/include/c++/7/bits/vector.tcc ****       if (__first != __last)
 169:/usr/include/c++/7/bits/vector.tcc **** 	{
 170:/usr/include/c++/7/bits/vector.tcc **** 	  if (__last != end())
 171:/usr/include/c++/7/bits/vector.tcc **** 	    _GLIBCXX_MOVE3(__last, end(), __first);
 172:/usr/include/c++/7/bits/vector.tcc **** 	  _M_erase_at_end(__first.base() + (end() - __last));
 173:/usr/include/c++/7/bits/vector.tcc **** 	}
 174:/usr/include/c++/7/bits/vector.tcc ****       return __first;
 175:/usr/include/c++/7/bits/vector.tcc ****     }
 176:/usr/include/c++/7/bits/vector.tcc **** 
 177:/usr/include/c++/7/bits/vector.tcc ****   template<typename _Tp, typename _Alloc>
 178:/usr/include/c++/7/bits/vector.tcc ****     vector<_Tp, _Alloc>&
 179:/usr/include/c++/7/bits/vector.tcc ****     vector<_Tp, _Alloc>::
 180:/usr/include/c++/7/bits/vector.tcc ****     operator=(const vector<_Tp, _Alloc>& __x)
 181:/usr/include/c++/7/bits/vector.tcc ****     {
 182:/usr/include/c++/7/bits/vector.tcc ****       if (&__x != this)
 183:/usr/include/c++/7/bits/vector.tcc **** 	{
 184:/usr/include/c++/7/bits/vector.tcc **** #if __cplusplus >= 201103L
 185:/usr/include/c++/7/bits/vector.tcc **** 	  if (_Alloc_traits::_S_propagate_on_copy_assign())
 186:/usr/include/c++/7/bits/vector.tcc **** 	    {
 187:/usr/include/c++/7/bits/vector.tcc **** 	      if (!_Alloc_traits::_S_always_equal()
 188:/usr/include/c++/7/bits/vector.tcc **** 	          && _M_get_Tp_allocator() != __x._M_get_Tp_allocator())
 189:/usr/include/c++/7/bits/vector.tcc **** 	        {
 190:/usr/include/c++/7/bits/vector.tcc **** 		  // replacement allocator cannot free existing storage
 191:/usr/include/c++/7/bits/vector.tcc **** 		  this->clear();
 192:/usr/include/c++/7/bits/vector.tcc **** 		  _M_deallocate(this->_M_impl._M_start,
 193:/usr/include/c++/7/bits/vector.tcc **** 				this->_M_impl._M_end_of_storage
GAS LISTING /tmp/ccTfuPTI.s 			page 28


 194:/usr/include/c++/7/bits/vector.tcc **** 				- this->_M_impl._M_start);
 195:/usr/include/c++/7/bits/vector.tcc **** 		  this->_M_impl._M_start = nullptr;
 196:/usr/include/c++/7/bits/vector.tcc **** 		  this->_M_impl._M_finish = nullptr;
 197:/usr/include/c++/7/bits/vector.tcc **** 		  this->_M_impl._M_end_of_storage = nullptr;
 198:/usr/include/c++/7/bits/vector.tcc **** 		}
 199:/usr/include/c++/7/bits/vector.tcc **** 	      std::__alloc_on_copy(_M_get_Tp_allocator(),
 200:/usr/include/c++/7/bits/vector.tcc **** 				   __x._M_get_Tp_allocator());
 201:/usr/include/c++/7/bits/vector.tcc **** 	    }
 202:/usr/include/c++/7/bits/vector.tcc **** #endif
 203:/usr/include/c++/7/bits/vector.tcc **** 	  const size_type __xlen = __x.size();
 204:/usr/include/c++/7/bits/vector.tcc **** 	  if (__xlen > capacity())
 205:/usr/include/c++/7/bits/vector.tcc **** 	    {
 206:/usr/include/c++/7/bits/vector.tcc **** 	      pointer __tmp = _M_allocate_and_copy(__xlen, __x.begin(),
 207:/usr/include/c++/7/bits/vector.tcc **** 						   __x.end());
 208:/usr/include/c++/7/bits/vector.tcc **** 	      std::_Destroy(this->_M_impl._M_start, this->_M_impl._M_finish,
 209:/usr/include/c++/7/bits/vector.tcc **** 			    _M_get_Tp_allocator());
 210:/usr/include/c++/7/bits/vector.tcc **** 	      _M_deallocate(this->_M_impl._M_start,
 211:/usr/include/c++/7/bits/vector.tcc **** 			    this->_M_impl._M_end_of_storage
 212:/usr/include/c++/7/bits/vector.tcc **** 			    - this->_M_impl._M_start);
 213:/usr/include/c++/7/bits/vector.tcc **** 	      this->_M_impl._M_start = __tmp;
 214:/usr/include/c++/7/bits/vector.tcc **** 	      this->_M_impl._M_end_of_storage = this->_M_impl._M_start + __xlen;
 215:/usr/include/c++/7/bits/vector.tcc **** 	    }
 216:/usr/include/c++/7/bits/vector.tcc **** 	  else if (size() >= __xlen)
 217:/usr/include/c++/7/bits/vector.tcc **** 	    {
 218:/usr/include/c++/7/bits/vector.tcc **** 	      std::_Destroy(std::copy(__x.begin(), __x.end(), begin()),
 219:/usr/include/c++/7/bits/vector.tcc **** 			    end(), _M_get_Tp_allocator());
 220:/usr/include/c++/7/bits/vector.tcc **** 	    }
 221:/usr/include/c++/7/bits/vector.tcc **** 	  else
 222:/usr/include/c++/7/bits/vector.tcc **** 	    {
 223:/usr/include/c++/7/bits/vector.tcc **** 	      std::copy(__x._M_impl._M_start, __x._M_impl._M_start + size(),
 224:/usr/include/c++/7/bits/vector.tcc **** 			this->_M_impl._M_start);
 225:/usr/include/c++/7/bits/vector.tcc **** 	      std::__uninitialized_copy_a(__x._M_impl._M_start + size(),
 226:/usr/include/c++/7/bits/vector.tcc **** 					  __x._M_impl._M_finish,
 227:/usr/include/c++/7/bits/vector.tcc **** 					  this->_M_impl._M_finish,
 228:/usr/include/c++/7/bits/vector.tcc **** 					  _M_get_Tp_allocator());
 229:/usr/include/c++/7/bits/vector.tcc **** 	    }
 230:/usr/include/c++/7/bits/vector.tcc **** 	  this->_M_impl._M_finish = this->_M_impl._M_start + __xlen;
 231:/usr/include/c++/7/bits/vector.tcc **** 	}
 232:/usr/include/c++/7/bits/vector.tcc ****       return *this;
 233:/usr/include/c++/7/bits/vector.tcc ****     }
 234:/usr/include/c++/7/bits/vector.tcc **** 
 235:/usr/include/c++/7/bits/vector.tcc ****   template<typename _Tp, typename _Alloc>
 236:/usr/include/c++/7/bits/vector.tcc ****     void
 237:/usr/include/c++/7/bits/vector.tcc ****     vector<_Tp, _Alloc>::
 238:/usr/include/c++/7/bits/vector.tcc ****     _M_fill_assign(size_t __n, const value_type& __val)
 239:/usr/include/c++/7/bits/vector.tcc ****     {
 240:/usr/include/c++/7/bits/vector.tcc ****       if (__n > capacity())
 241:/usr/include/c++/7/bits/vector.tcc **** 	{
 242:/usr/include/c++/7/bits/vector.tcc **** 	  vector __tmp(__n, __val, _M_get_Tp_allocator());
 243:/usr/include/c++/7/bits/vector.tcc **** 	  __tmp._M_impl._M_swap_data(this->_M_impl);
 244:/usr/include/c++/7/bits/vector.tcc **** 	}
 245:/usr/include/c++/7/bits/vector.tcc ****       else if (__n > size())
 246:/usr/include/c++/7/bits/vector.tcc **** 	{
 247:/usr/include/c++/7/bits/vector.tcc **** 	  std::fill(begin(), end(), __val);
 248:/usr/include/c++/7/bits/vector.tcc **** 	  this->_M_impl._M_finish =
 249:/usr/include/c++/7/bits/vector.tcc **** 	    std::__uninitialized_fill_n_a(this->_M_impl._M_finish,
 250:/usr/include/c++/7/bits/vector.tcc **** 					  __n - size(), __val,
GAS LISTING /tmp/ccTfuPTI.s 			page 29


 251:/usr/include/c++/7/bits/vector.tcc **** 					  _M_get_Tp_allocator());
 252:/usr/include/c++/7/bits/vector.tcc **** 	}
 253:/usr/include/c++/7/bits/vector.tcc ****       else
 254:/usr/include/c++/7/bits/vector.tcc ****         _M_erase_at_end(std::fill_n(this->_M_impl._M_start, __n, __val));
 255:/usr/include/c++/7/bits/vector.tcc ****     }
 256:/usr/include/c++/7/bits/vector.tcc **** 
 257:/usr/include/c++/7/bits/vector.tcc ****   template<typename _Tp, typename _Alloc>
 258:/usr/include/c++/7/bits/vector.tcc ****     template<typename _InputIterator>
 259:/usr/include/c++/7/bits/vector.tcc ****       void
 260:/usr/include/c++/7/bits/vector.tcc ****       vector<_Tp, _Alloc>::
 261:/usr/include/c++/7/bits/vector.tcc ****       _M_assign_aux(_InputIterator __first, _InputIterator __last,
 262:/usr/include/c++/7/bits/vector.tcc **** 		    std::input_iterator_tag)
 263:/usr/include/c++/7/bits/vector.tcc ****       {
 264:/usr/include/c++/7/bits/vector.tcc **** 	pointer __cur(this->_M_impl._M_start);
 265:/usr/include/c++/7/bits/vector.tcc **** 	for (; __first != __last && __cur != this->_M_impl._M_finish;
 266:/usr/include/c++/7/bits/vector.tcc **** 	     ++__cur, ++__first)
 267:/usr/include/c++/7/bits/vector.tcc **** 	  *__cur = *__first;
 268:/usr/include/c++/7/bits/vector.tcc **** 	if (__first == __last)
 269:/usr/include/c++/7/bits/vector.tcc **** 	  _M_erase_at_end(__cur);
 270:/usr/include/c++/7/bits/vector.tcc **** 	else
 271:/usr/include/c++/7/bits/vector.tcc **** 	  _M_range_insert(end(), __first, __last,
 272:/usr/include/c++/7/bits/vector.tcc **** 			  std::__iterator_category(__first));
 273:/usr/include/c++/7/bits/vector.tcc ****       }
 274:/usr/include/c++/7/bits/vector.tcc **** 
 275:/usr/include/c++/7/bits/vector.tcc ****   template<typename _Tp, typename _Alloc>
 276:/usr/include/c++/7/bits/vector.tcc ****     template<typename _ForwardIterator>
 277:/usr/include/c++/7/bits/vector.tcc ****       void
 278:/usr/include/c++/7/bits/vector.tcc ****       vector<_Tp, _Alloc>::
 279:/usr/include/c++/7/bits/vector.tcc ****       _M_assign_aux(_ForwardIterator __first, _ForwardIterator __last,
 280:/usr/include/c++/7/bits/vector.tcc **** 		    std::forward_iterator_tag)
 281:/usr/include/c++/7/bits/vector.tcc ****       {
 282:/usr/include/c++/7/bits/vector.tcc **** 	const size_type __len = std::distance(__first, __last);
 283:/usr/include/c++/7/bits/vector.tcc **** 
 284:/usr/include/c++/7/bits/vector.tcc **** 	if (__len > capacity())
 285:/usr/include/c++/7/bits/vector.tcc **** 	  {
 286:/usr/include/c++/7/bits/vector.tcc **** 	    pointer __tmp(_M_allocate_and_copy(__len, __first, __last));
 287:/usr/include/c++/7/bits/vector.tcc **** 	    std::_Destroy(this->_M_impl._M_start, this->_M_impl._M_finish,
 288:/usr/include/c++/7/bits/vector.tcc **** 			  _M_get_Tp_allocator());
 289:/usr/include/c++/7/bits/vector.tcc **** 	    _M_deallocate(this->_M_impl._M_start,
 290:/usr/include/c++/7/bits/vector.tcc **** 			  this->_M_impl._M_end_of_storage
 291:/usr/include/c++/7/bits/vector.tcc **** 			  - this->_M_impl._M_start);
 292:/usr/include/c++/7/bits/vector.tcc **** 	    this->_M_impl._M_start = __tmp;
 293:/usr/include/c++/7/bits/vector.tcc **** 	    this->_M_impl._M_finish = this->_M_impl._M_start + __len;
 294:/usr/include/c++/7/bits/vector.tcc **** 	    this->_M_impl._M_end_of_storage = this->_M_impl._M_finish;
 295:/usr/include/c++/7/bits/vector.tcc **** 	  }
 296:/usr/include/c++/7/bits/vector.tcc **** 	else if (size() >= __len)
 297:/usr/include/c++/7/bits/vector.tcc **** 	  _M_erase_at_end(std::copy(__first, __last, this->_M_impl._M_start));
 298:/usr/include/c++/7/bits/vector.tcc **** 	else
 299:/usr/include/c++/7/bits/vector.tcc **** 	  {
 300:/usr/include/c++/7/bits/vector.tcc **** 	    _ForwardIterator __mid = __first;
 301:/usr/include/c++/7/bits/vector.tcc **** 	    std::advance(__mid, size());
 302:/usr/include/c++/7/bits/vector.tcc **** 	    std::copy(__first, __mid, this->_M_impl._M_start);
 303:/usr/include/c++/7/bits/vector.tcc **** 	    this->_M_impl._M_finish =
 304:/usr/include/c++/7/bits/vector.tcc **** 	      std::__uninitialized_copy_a(__mid, __last,
 305:/usr/include/c++/7/bits/vector.tcc **** 					  this->_M_impl._M_finish,
 306:/usr/include/c++/7/bits/vector.tcc **** 					  _M_get_Tp_allocator());
 307:/usr/include/c++/7/bits/vector.tcc **** 	  }
GAS LISTING /tmp/ccTfuPTI.s 			page 30


 308:/usr/include/c++/7/bits/vector.tcc ****       }
 309:/usr/include/c++/7/bits/vector.tcc **** 
 310:/usr/include/c++/7/bits/vector.tcc **** #if __cplusplus >= 201103L
 311:/usr/include/c++/7/bits/vector.tcc ****   template<typename _Tp, typename _Alloc>
 312:/usr/include/c++/7/bits/vector.tcc ****     auto
 313:/usr/include/c++/7/bits/vector.tcc ****     vector<_Tp, _Alloc>::
 314:/usr/include/c++/7/bits/vector.tcc ****     _M_insert_rval(const_iterator __position, value_type&& __v) -> iterator
 315:/usr/include/c++/7/bits/vector.tcc ****     {
 316:/usr/include/c++/7/bits/vector.tcc ****       const auto __n = __position - cbegin();
 317:/usr/include/c++/7/bits/vector.tcc ****       if (this->_M_impl._M_finish != this->_M_impl._M_end_of_storage)
 318:/usr/include/c++/7/bits/vector.tcc **** 	if (__position == cend())
 319:/usr/include/c++/7/bits/vector.tcc **** 	  {
 320:/usr/include/c++/7/bits/vector.tcc **** 	    _Alloc_traits::construct(this->_M_impl, this->_M_impl._M_finish,
 321:/usr/include/c++/7/bits/vector.tcc **** 				     std::move(__v));
 322:/usr/include/c++/7/bits/vector.tcc **** 	    ++this->_M_impl._M_finish;
 323:/usr/include/c++/7/bits/vector.tcc **** 	  }
 324:/usr/include/c++/7/bits/vector.tcc **** 	else
 325:/usr/include/c++/7/bits/vector.tcc **** 	  _M_insert_aux(begin() + __n, std::move(__v));
 326:/usr/include/c++/7/bits/vector.tcc ****       else
 327:/usr/include/c++/7/bits/vector.tcc **** 	_M_realloc_insert(begin() + __n, std::move(__v));
 328:/usr/include/c++/7/bits/vector.tcc **** 
 329:/usr/include/c++/7/bits/vector.tcc ****       return iterator(this->_M_impl._M_start + __n);
 330:/usr/include/c++/7/bits/vector.tcc ****     }
 331:/usr/include/c++/7/bits/vector.tcc **** 
 332:/usr/include/c++/7/bits/vector.tcc ****   template<typename _Tp, typename _Alloc>
 333:/usr/include/c++/7/bits/vector.tcc ****     template<typename... _Args>
 334:/usr/include/c++/7/bits/vector.tcc ****       auto
 335:/usr/include/c++/7/bits/vector.tcc ****       vector<_Tp, _Alloc>::
 336:/usr/include/c++/7/bits/vector.tcc ****       _M_emplace_aux(const_iterator __position, _Args&&... __args)
 337:/usr/include/c++/7/bits/vector.tcc ****       -> iterator
 338:/usr/include/c++/7/bits/vector.tcc ****       {
 339:/usr/include/c++/7/bits/vector.tcc **** 	const auto __n = __position - cbegin();
 340:/usr/include/c++/7/bits/vector.tcc **** 	if (this->_M_impl._M_finish != this->_M_impl._M_end_of_storage)
 341:/usr/include/c++/7/bits/vector.tcc **** 	  if (__position == cend())
 342:/usr/include/c++/7/bits/vector.tcc **** 	    {
 343:/usr/include/c++/7/bits/vector.tcc **** 	      _Alloc_traits::construct(this->_M_impl, this->_M_impl._M_finish,
 344:/usr/include/c++/7/bits/vector.tcc **** 				       std::forward<_Args>(__args)...);
 345:/usr/include/c++/7/bits/vector.tcc **** 	      ++this->_M_impl._M_finish;
 346:/usr/include/c++/7/bits/vector.tcc **** 	    }
 347:/usr/include/c++/7/bits/vector.tcc **** 	  else
 348:/usr/include/c++/7/bits/vector.tcc **** 	    {
 349:/usr/include/c++/7/bits/vector.tcc **** 	      // We need to construct a temporary because something in __args...
 350:/usr/include/c++/7/bits/vector.tcc **** 	      // could alias one of the elements of the container and so we
 351:/usr/include/c++/7/bits/vector.tcc **** 	      // need to use it before _M_insert_aux moves elements around.
 352:/usr/include/c++/7/bits/vector.tcc **** 	      _Temporary_value __tmp(this, std::forward<_Args>(__args)...);
 353:/usr/include/c++/7/bits/vector.tcc **** 	      _M_insert_aux(begin() + __n, std::move(__tmp._M_val()));
 354:/usr/include/c++/7/bits/vector.tcc **** 	    }
 355:/usr/include/c++/7/bits/vector.tcc **** 	else
 356:/usr/include/c++/7/bits/vector.tcc **** 	  _M_realloc_insert(begin() + __n, std::forward<_Args>(__args)...);
 357:/usr/include/c++/7/bits/vector.tcc **** 
 358:/usr/include/c++/7/bits/vector.tcc **** 	return iterator(this->_M_impl._M_start + __n);
 359:/usr/include/c++/7/bits/vector.tcc ****       }
 360:/usr/include/c++/7/bits/vector.tcc **** 
 361:/usr/include/c++/7/bits/vector.tcc ****   template<typename _Tp, typename _Alloc>
 362:/usr/include/c++/7/bits/vector.tcc ****     template<typename _Arg>
 363:/usr/include/c++/7/bits/vector.tcc ****       void
 364:/usr/include/c++/7/bits/vector.tcc ****       vector<_Tp, _Alloc>::
GAS LISTING /tmp/ccTfuPTI.s 			page 31


 365:/usr/include/c++/7/bits/vector.tcc ****       _M_insert_aux(iterator __position, _Arg&& __arg)
 366:/usr/include/c++/7/bits/vector.tcc **** #else
 367:/usr/include/c++/7/bits/vector.tcc ****   template<typename _Tp, typename _Alloc>
 368:/usr/include/c++/7/bits/vector.tcc ****     void
 369:/usr/include/c++/7/bits/vector.tcc ****     vector<_Tp, _Alloc>::
 370:/usr/include/c++/7/bits/vector.tcc ****     _M_insert_aux(iterator __position, const _Tp& __x)
 371:/usr/include/c++/7/bits/vector.tcc **** #endif
 372:/usr/include/c++/7/bits/vector.tcc ****     {
 373:/usr/include/c++/7/bits/vector.tcc ****       _Alloc_traits::construct(this->_M_impl, this->_M_impl._M_finish,
 374:/usr/include/c++/7/bits/vector.tcc **** 			       _GLIBCXX_MOVE(*(this->_M_impl._M_finish
 375:/usr/include/c++/7/bits/vector.tcc **** 					       - 1)));
 376:/usr/include/c++/7/bits/vector.tcc ****       ++this->_M_impl._M_finish;
 377:/usr/include/c++/7/bits/vector.tcc **** #if __cplusplus < 201103L
 378:/usr/include/c++/7/bits/vector.tcc ****       _Tp __x_copy = __x;
 379:/usr/include/c++/7/bits/vector.tcc **** #endif
 380:/usr/include/c++/7/bits/vector.tcc ****       _GLIBCXX_MOVE_BACKWARD3(__position.base(),
 381:/usr/include/c++/7/bits/vector.tcc **** 			      this->_M_impl._M_finish - 2,
 382:/usr/include/c++/7/bits/vector.tcc **** 			      this->_M_impl._M_finish - 1);
 383:/usr/include/c++/7/bits/vector.tcc **** #if __cplusplus < 201103L
 384:/usr/include/c++/7/bits/vector.tcc ****       *__position = __x_copy;
 385:/usr/include/c++/7/bits/vector.tcc **** #else
 386:/usr/include/c++/7/bits/vector.tcc ****       *__position = std::forward<_Arg>(__arg);
 387:/usr/include/c++/7/bits/vector.tcc **** #endif
 388:/usr/include/c++/7/bits/vector.tcc ****     }
 389:/usr/include/c++/7/bits/vector.tcc **** 
 390:/usr/include/c++/7/bits/vector.tcc **** #if __cplusplus >= 201103L
 391:/usr/include/c++/7/bits/vector.tcc ****   template<typename _Tp, typename _Alloc>
 392:/usr/include/c++/7/bits/vector.tcc ****     template<typename... _Args>
 393:/usr/include/c++/7/bits/vector.tcc ****       void
 394:/usr/include/c++/7/bits/vector.tcc ****       vector<_Tp, _Alloc>::
 395:/usr/include/c++/7/bits/vector.tcc ****       _M_realloc_insert(iterator __position, _Args&&... __args)
 396:/usr/include/c++/7/bits/vector.tcc **** #else
 397:/usr/include/c++/7/bits/vector.tcc ****   template<typename _Tp, typename _Alloc>
 398:/usr/include/c++/7/bits/vector.tcc ****     void
 399:/usr/include/c++/7/bits/vector.tcc ****     vector<_Tp, _Alloc>::
 400:/usr/include/c++/7/bits/vector.tcc ****     _M_realloc_insert(iterator __position, const _Tp& __x)
 401:/usr/include/c++/7/bits/vector.tcc **** #endif
 402:/usr/include/c++/7/bits/vector.tcc ****     {
 403:/usr/include/c++/7/bits/vector.tcc ****       const size_type __len =
 404:/usr/include/c++/7/bits/vector.tcc **** 	_M_check_len(size_type(1), "vector::_M_realloc_insert");
 405:/usr/include/c++/7/bits/vector.tcc ****       const size_type __elems_before = __position - begin();
 406:/usr/include/c++/7/bits/vector.tcc ****       pointer __new_start(this->_M_allocate(__len));
 407:/usr/include/c++/7/bits/vector.tcc ****       pointer __new_finish(__new_start);
 408:/usr/include/c++/7/bits/vector.tcc ****       __try
 409:/usr/include/c++/7/bits/vector.tcc **** 	{
 410:/usr/include/c++/7/bits/vector.tcc **** 	  // The order of the three operations is dictated by the C++11
 411:/usr/include/c++/7/bits/vector.tcc **** 	  // case, where the moves could alter a new element belonging
 412:/usr/include/c++/7/bits/vector.tcc **** 	  // to the existing vector.  This is an issue only for callers
 413:/usr/include/c++/7/bits/vector.tcc **** 	  // taking the element by lvalue ref (see last bullet of C++11
 414:/usr/include/c++/7/bits/vector.tcc **** 	  // [res.on.arguments]).
 415:/usr/include/c++/7/bits/vector.tcc **** 	  _Alloc_traits::construct(this->_M_impl,
 416:/usr/include/c++/7/bits/vector.tcc **** 				   __new_start + __elems_before,
 417:/usr/include/c++/7/bits/vector.tcc **** #if __cplusplus >= 201103L
 418:/usr/include/c++/7/bits/vector.tcc **** 				   std::forward<_Args>(__args)...);
 419:/usr/include/c++/7/bits/vector.tcc **** #else
 420:/usr/include/c++/7/bits/vector.tcc **** 				   __x);
 421:/usr/include/c++/7/bits/vector.tcc **** #endif
GAS LISTING /tmp/ccTfuPTI.s 			page 32


 422:/usr/include/c++/7/bits/vector.tcc **** 	  __new_finish = pointer();
 423:/usr/include/c++/7/bits/vector.tcc **** 
 424:/usr/include/c++/7/bits/vector.tcc **** 	  __new_finish
 425:/usr/include/c++/7/bits/vector.tcc **** 	    = std::__uninitialized_move_if_noexcept_a
 426:/usr/include/c++/7/bits/vector.tcc **** 	    (this->_M_impl._M_start, __position.base(),
 427:/usr/include/c++/7/bits/vector.tcc **** 	     __new_start, _M_get_Tp_allocator());
 428:/usr/include/c++/7/bits/vector.tcc **** 
 429:/usr/include/c++/7/bits/vector.tcc **** 	  ++__new_finish;
 430:/usr/include/c++/7/bits/vector.tcc **** 
 431:/usr/include/c++/7/bits/vector.tcc **** 	  __new_finish
 432:/usr/include/c++/7/bits/vector.tcc **** 	    = std::__uninitialized_move_if_noexcept_a
 433:/usr/include/c++/7/bits/vector.tcc **** 	    (__position.base(), this->_M_impl._M_finish,
 434:/usr/include/c++/7/bits/vector.tcc **** 	     __new_finish, _M_get_Tp_allocator());
 435:/usr/include/c++/7/bits/vector.tcc **** 	}
 436:/usr/include/c++/7/bits/vector.tcc ****       __catch(...)
 437:/usr/include/c++/7/bits/vector.tcc **** 	{
 438:/usr/include/c++/7/bits/vector.tcc **** 	  if (!__new_finish)
 439:/usr/include/c++/7/bits/vector.tcc **** 	    _Alloc_traits::destroy(this->_M_impl,
 440:/usr/include/c++/7/bits/vector.tcc **** 				   __new_start + __elems_before);
 441:/usr/include/c++/7/bits/vector.tcc **** 	  else
 442:/usr/include/c++/7/bits/vector.tcc **** 	    std::_Destroy(__new_start, __new_finish, _M_get_Tp_allocator());
 443:/usr/include/c++/7/bits/vector.tcc **** 	  _M_deallocate(__new_start, __len);
 444:/usr/include/c++/7/bits/vector.tcc **** 	  __throw_exception_again;
 445:/usr/include/c++/7/bits/vector.tcc **** 	}
 446:/usr/include/c++/7/bits/vector.tcc ****       std::_Destroy(this->_M_impl._M_start, this->_M_impl._M_finish,
 447:/usr/include/c++/7/bits/vector.tcc **** 		    _M_get_Tp_allocator());
 448:/usr/include/c++/7/bits/vector.tcc ****       _M_deallocate(this->_M_impl._M_start,
 449:/usr/include/c++/7/bits/vector.tcc **** 		    this->_M_impl._M_end_of_storage
 450:/usr/include/c++/7/bits/vector.tcc **** 		    - this->_M_impl._M_start);
 451:/usr/include/c++/7/bits/vector.tcc ****       this->_M_impl._M_start = __new_start;
 452:/usr/include/c++/7/bits/vector.tcc ****       this->_M_impl._M_finish = __new_finish;
 453:/usr/include/c++/7/bits/vector.tcc ****       this->_M_impl._M_end_of_storage = __new_start + __len;
 454:/usr/include/c++/7/bits/vector.tcc ****     }
 455:/usr/include/c++/7/bits/vector.tcc **** 
 456:/usr/include/c++/7/bits/vector.tcc ****   template<typename _Tp, typename _Alloc>
 457:/usr/include/c++/7/bits/vector.tcc ****     void
 458:/usr/include/c++/7/bits/vector.tcc ****     vector<_Tp, _Alloc>::
 459:/usr/include/c++/7/bits/vector.tcc ****     _M_fill_insert(iterator __position, size_type __n, const value_type& __x)
 460:/usr/include/c++/7/bits/vector.tcc ****     {
 461:/usr/include/c++/7/bits/vector.tcc ****       if (__n != 0)
 462:/usr/include/c++/7/bits/vector.tcc **** 	{
 463:/usr/include/c++/7/bits/vector.tcc **** 	  if (size_type(this->_M_impl._M_end_of_storage
 464:/usr/include/c++/7/bits/vector.tcc **** 			- this->_M_impl._M_finish) >= __n)
 465:/usr/include/c++/7/bits/vector.tcc **** 	    {
 466:/usr/include/c++/7/bits/vector.tcc **** #if __cplusplus < 201103L
 467:/usr/include/c++/7/bits/vector.tcc **** 	      value_type __x_copy = __x;
 468:/usr/include/c++/7/bits/vector.tcc **** #else
 469:/usr/include/c++/7/bits/vector.tcc **** 	      _Temporary_value __tmp(this, __x);
 470:/usr/include/c++/7/bits/vector.tcc **** 	      value_type& __x_copy = __tmp._M_val();
 471:/usr/include/c++/7/bits/vector.tcc **** #endif
 472:/usr/include/c++/7/bits/vector.tcc **** 	      const size_type __elems_after = end() - __position;
 473:/usr/include/c++/7/bits/vector.tcc **** 	      pointer __old_finish(this->_M_impl._M_finish);
 474:/usr/include/c++/7/bits/vector.tcc **** 	      if (__elems_after > __n)
 475:/usr/include/c++/7/bits/vector.tcc **** 		{
 476:/usr/include/c++/7/bits/vector.tcc **** 		  std::__uninitialized_move_a(this->_M_impl._M_finish - __n,
 477:/usr/include/c++/7/bits/vector.tcc **** 					      this->_M_impl._M_finish,
 478:/usr/include/c++/7/bits/vector.tcc **** 					      this->_M_impl._M_finish,
GAS LISTING /tmp/ccTfuPTI.s 			page 33


 479:/usr/include/c++/7/bits/vector.tcc **** 					      _M_get_Tp_allocator());
 480:/usr/include/c++/7/bits/vector.tcc **** 		  this->_M_impl._M_finish += __n;
 481:/usr/include/c++/7/bits/vector.tcc **** 		  _GLIBCXX_MOVE_BACKWARD3(__position.base(),
 482:/usr/include/c++/7/bits/vector.tcc **** 					  __old_finish - __n, __old_finish);
 483:/usr/include/c++/7/bits/vector.tcc **** 		  std::fill(__position.base(), __position.base() + __n,
 484:/usr/include/c++/7/bits/vector.tcc **** 			    __x_copy);
 485:/usr/include/c++/7/bits/vector.tcc **** 		}
 486:/usr/include/c++/7/bits/vector.tcc **** 	      else
 487:/usr/include/c++/7/bits/vector.tcc **** 		{
 488:/usr/include/c++/7/bits/vector.tcc **** 		  this->_M_impl._M_finish =
 489:/usr/include/c++/7/bits/vector.tcc **** 		    std::__uninitialized_fill_n_a(this->_M_impl._M_finish,
 490:/usr/include/c++/7/bits/vector.tcc **** 						  __n - __elems_after,
 491:/usr/include/c++/7/bits/vector.tcc **** 						  __x_copy,
 492:/usr/include/c++/7/bits/vector.tcc **** 						  _M_get_Tp_allocator());
 493:/usr/include/c++/7/bits/vector.tcc **** 		  std::__uninitialized_move_a(__position.base(), __old_finish,
 494:/usr/include/c++/7/bits/vector.tcc **** 					      this->_M_impl._M_finish,
 495:/usr/include/c++/7/bits/vector.tcc **** 					      _M_get_Tp_allocator());
 496:/usr/include/c++/7/bits/vector.tcc **** 		  this->_M_impl._M_finish += __elems_after;
 497:/usr/include/c++/7/bits/vector.tcc **** 		  std::fill(__position.base(), __old_finish, __x_copy);
 498:/usr/include/c++/7/bits/vector.tcc **** 		}
 499:/usr/include/c++/7/bits/vector.tcc **** 	    }
 500:/usr/include/c++/7/bits/vector.tcc **** 	  else
 501:/usr/include/c++/7/bits/vector.tcc **** 	    {
 502:/usr/include/c++/7/bits/vector.tcc **** 	      const size_type __len =
 503:/usr/include/c++/7/bits/vector.tcc **** 		_M_check_len(__n, "vector::_M_fill_insert");
 504:/usr/include/c++/7/bits/vector.tcc **** 	      const size_type __elems_before = __position - begin();
 505:/usr/include/c++/7/bits/vector.tcc **** 	      pointer __new_start(this->_M_allocate(__len));
 506:/usr/include/c++/7/bits/vector.tcc **** 	      pointer __new_finish(__new_start);
 507:/usr/include/c++/7/bits/vector.tcc **** 	      __try
 508:/usr/include/c++/7/bits/vector.tcc **** 		{
 509:/usr/include/c++/7/bits/vector.tcc **** 		  // See _M_realloc_insert above.
 510:/usr/include/c++/7/bits/vector.tcc **** 		  std::__uninitialized_fill_n_a(__new_start + __elems_before,
 511:/usr/include/c++/7/bits/vector.tcc **** 						__n, __x,
 512:/usr/include/c++/7/bits/vector.tcc **** 						_M_get_Tp_allocator());
 513:/usr/include/c++/7/bits/vector.tcc **** 		  __new_finish = pointer();
 514:/usr/include/c++/7/bits/vector.tcc **** 
 515:/usr/include/c++/7/bits/vector.tcc **** 		  __new_finish
 516:/usr/include/c++/7/bits/vector.tcc **** 		    = std::__uninitialized_move_if_noexcept_a
 517:/usr/include/c++/7/bits/vector.tcc **** 		    (this->_M_impl._M_start, __position.base(),
 518:/usr/include/c++/7/bits/vector.tcc **** 		     __new_start, _M_get_Tp_allocator());
 519:/usr/include/c++/7/bits/vector.tcc **** 
 520:/usr/include/c++/7/bits/vector.tcc **** 		  __new_finish += __n;
 521:/usr/include/c++/7/bits/vector.tcc **** 
 522:/usr/include/c++/7/bits/vector.tcc **** 		  __new_finish
 523:/usr/include/c++/7/bits/vector.tcc **** 		    = std::__uninitialized_move_if_noexcept_a
 524:/usr/include/c++/7/bits/vector.tcc **** 		    (__position.base(), this->_M_impl._M_finish,
 525:/usr/include/c++/7/bits/vector.tcc **** 		     __new_finish, _M_get_Tp_allocator());
 526:/usr/include/c++/7/bits/vector.tcc **** 		}
 527:/usr/include/c++/7/bits/vector.tcc **** 	      __catch(...)
 528:/usr/include/c++/7/bits/vector.tcc **** 		{
 529:/usr/include/c++/7/bits/vector.tcc **** 		  if (!__new_finish)
 530:/usr/include/c++/7/bits/vector.tcc **** 		    std::_Destroy(__new_start + __elems_before,
 531:/usr/include/c++/7/bits/vector.tcc **** 				  __new_start + __elems_before + __n,
 532:/usr/include/c++/7/bits/vector.tcc **** 				  _M_get_Tp_allocator());
 533:/usr/include/c++/7/bits/vector.tcc **** 		  else
 534:/usr/include/c++/7/bits/vector.tcc **** 		    std::_Destroy(__new_start, __new_finish,
 535:/usr/include/c++/7/bits/vector.tcc **** 				  _M_get_Tp_allocator());
GAS LISTING /tmp/ccTfuPTI.s 			page 34


 536:/usr/include/c++/7/bits/vector.tcc **** 		  _M_deallocate(__new_start, __len);
 537:/usr/include/c++/7/bits/vector.tcc **** 		  __throw_exception_again;
 538:/usr/include/c++/7/bits/vector.tcc **** 		}
 539:/usr/include/c++/7/bits/vector.tcc **** 	      std::_Destroy(this->_M_impl._M_start, this->_M_impl._M_finish,
 540:/usr/include/c++/7/bits/vector.tcc **** 			    _M_get_Tp_allocator());
 541:/usr/include/c++/7/bits/vector.tcc **** 	      _M_deallocate(this->_M_impl._M_start,
 542:/usr/include/c++/7/bits/vector.tcc **** 			    this->_M_impl._M_end_of_storage
 543:/usr/include/c++/7/bits/vector.tcc **** 			    - this->_M_impl._M_start);
 544:/usr/include/c++/7/bits/vector.tcc **** 	      this->_M_impl._M_start = __new_start;
 545:/usr/include/c++/7/bits/vector.tcc **** 	      this->_M_impl._M_finish = __new_finish;
 546:/usr/include/c++/7/bits/vector.tcc **** 	      this->_M_impl._M_end_of_storage = __new_start + __len;
 547:/usr/include/c++/7/bits/vector.tcc **** 	    }
 548:/usr/include/c++/7/bits/vector.tcc **** 	}
 549:/usr/include/c++/7/bits/vector.tcc ****     }
 550:/usr/include/c++/7/bits/vector.tcc **** 
 551:/usr/include/c++/7/bits/vector.tcc **** #if __cplusplus >= 201103L
 552:/usr/include/c++/7/bits/vector.tcc ****   template<typename _Tp, typename _Alloc>
 553:/usr/include/c++/7/bits/vector.tcc ****     void
 554:/usr/include/c++/7/bits/vector.tcc ****     vector<_Tp, _Alloc>::
 295              		.loc 5 554 0
 296              		.cfi_startproc
 297              	.LVL26:
 298              	.LBB1681:
 555:/usr/include/c++/7/bits/vector.tcc ****     _M_default_append(size_type __n)
 556:/usr/include/c++/7/bits/vector.tcc ****     {
 557:/usr/include/c++/7/bits/vector.tcc ****       if (__n != 0)
 299              		.loc 5 557 0
 300 0000 4885F6   		testq	%rsi, %rsi
 301 0003 0F844401 		je	.L39
 301      0000
 302              	.LBB1682:
 558:/usr/include/c++/7/bits/vector.tcc **** 	{
 559:/usr/include/c++/7/bits/vector.tcc **** 	  if (size_type(this->_M_impl._M_end_of_storage
 560:/usr/include/c++/7/bits/vector.tcc **** 			- this->_M_impl._M_finish) >= __n)
 303              		.loc 5 560 0
 304 0009 488B4F08 		movq	8(%rdi), %rcx
 305 000d 488B5710 		movq	16(%rdi), %rdx
 306 0011 4829CA   		subq	%rcx, %rdx
 307 0014 48C1FA03 		sarq	$3, %rdx
 559:/usr/include/c++/7/bits/vector.tcc **** 			- this->_M_impl._M_finish) >= __n)
 308              		.loc 5 559 0
 309 0018 4839F2   		cmpq	%rsi, %rdx
 310 001b 7220     		jb	.L26
 311              	.LBB1683:
 312              	.LBB1684:
 313              	.LBB1685:
 314              	.LBB1686:
 315              	.LBB1687:
 316              	.LBB1688:
 317              	.LBB1689:
 318              	.LBB1690:
 319              	.LBB1691:
 320              		.file 6 "/usr/include/c++/7/bits/stl_algobase.h"
   1:/usr/include/c++/7/bits/stl_algobase.h **** // Core algorithmic facilities -*- C++ -*-
   2:/usr/include/c++/7/bits/stl_algobase.h **** 
   3:/usr/include/c++/7/bits/stl_algobase.h **** // Copyright (C) 2001-2017 Free Software Foundation, Inc.
   4:/usr/include/c++/7/bits/stl_algobase.h **** //
GAS LISTING /tmp/ccTfuPTI.s 			page 35


   5:/usr/include/c++/7/bits/stl_algobase.h **** // This file is part of the GNU ISO C++ Library.  This library is free
   6:/usr/include/c++/7/bits/stl_algobase.h **** // software; you can redistribute it and/or modify it under the
   7:/usr/include/c++/7/bits/stl_algobase.h **** // terms of the GNU General Public License as published by the
   8:/usr/include/c++/7/bits/stl_algobase.h **** // Free Software Foundation; either version 3, or (at your option)
   9:/usr/include/c++/7/bits/stl_algobase.h **** // any later version.
  10:/usr/include/c++/7/bits/stl_algobase.h **** 
  11:/usr/include/c++/7/bits/stl_algobase.h **** // This library is distributed in the hope that it will be useful,
  12:/usr/include/c++/7/bits/stl_algobase.h **** // but WITHOUT ANY WARRANTY; without even the implied warranty of
  13:/usr/include/c++/7/bits/stl_algobase.h **** // MERCHANTABILITY or FITNESS FOR A PARTICULAR PURPOSE.  See the
  14:/usr/include/c++/7/bits/stl_algobase.h **** // GNU General Public License for more details.
  15:/usr/include/c++/7/bits/stl_algobase.h **** 
  16:/usr/include/c++/7/bits/stl_algobase.h **** // Under Section 7 of GPL version 3, you are granted additional
  17:/usr/include/c++/7/bits/stl_algobase.h **** // permissions described in the GCC Runtime Library Exception, version
  18:/usr/include/c++/7/bits/stl_algobase.h **** // 3.1, as published by the Free Software Foundation.
  19:/usr/include/c++/7/bits/stl_algobase.h **** 
  20:/usr/include/c++/7/bits/stl_algobase.h **** // You should have received a copy of the GNU General Public License and
  21:/usr/include/c++/7/bits/stl_algobase.h **** // a copy of the GCC Runtime Library Exception along with this program;
  22:/usr/include/c++/7/bits/stl_algobase.h **** // see the files COPYING3 and COPYING.RUNTIME respectively.  If not, see
  23:/usr/include/c++/7/bits/stl_algobase.h **** // <http://www.gnu.org/licenses/>.
  24:/usr/include/c++/7/bits/stl_algobase.h **** 
  25:/usr/include/c++/7/bits/stl_algobase.h **** /*
  26:/usr/include/c++/7/bits/stl_algobase.h ****  *
  27:/usr/include/c++/7/bits/stl_algobase.h ****  * Copyright (c) 1994
  28:/usr/include/c++/7/bits/stl_algobase.h ****  * Hewlett-Packard Company
  29:/usr/include/c++/7/bits/stl_algobase.h ****  *
  30:/usr/include/c++/7/bits/stl_algobase.h ****  * Permission to use, copy, modify, distribute and sell this software
  31:/usr/include/c++/7/bits/stl_algobase.h ****  * and its documentation for any purpose is hereby granted without fee,
  32:/usr/include/c++/7/bits/stl_algobase.h ****  * provided that the above copyright notice appear in all copies and
  33:/usr/include/c++/7/bits/stl_algobase.h ****  * that both that copyright notice and this permission notice appear
  34:/usr/include/c++/7/bits/stl_algobase.h ****  * in supporting documentation.  Hewlett-Packard Company makes no
  35:/usr/include/c++/7/bits/stl_algobase.h ****  * representations about the suitability of this software for any
  36:/usr/include/c++/7/bits/stl_algobase.h ****  * purpose.  It is provided "as is" without express or implied warranty.
  37:/usr/include/c++/7/bits/stl_algobase.h ****  *
  38:/usr/include/c++/7/bits/stl_algobase.h ****  *
  39:/usr/include/c++/7/bits/stl_algobase.h ****  * Copyright (c) 1996-1998
  40:/usr/include/c++/7/bits/stl_algobase.h ****  * Silicon Graphics Computer Systems, Inc.
  41:/usr/include/c++/7/bits/stl_algobase.h ****  *
  42:/usr/include/c++/7/bits/stl_algobase.h ****  * Permission to use, copy, modify, distribute and sell this software
  43:/usr/include/c++/7/bits/stl_algobase.h ****  * and its documentation for any purpose is hereby granted without fee,
  44:/usr/include/c++/7/bits/stl_algobase.h ****  * provided that the above copyright notice appear in all copies and
  45:/usr/include/c++/7/bits/stl_algobase.h ****  * that both that copyright notice and this permission notice appear
  46:/usr/include/c++/7/bits/stl_algobase.h ****  * in supporting documentation.  Silicon Graphics makes no
  47:/usr/include/c++/7/bits/stl_algobase.h ****  * representations about the suitability of this software for any
  48:/usr/include/c++/7/bits/stl_algobase.h ****  * purpose.  It is provided "as is" without express or implied warranty.
  49:/usr/include/c++/7/bits/stl_algobase.h ****  */
  50:/usr/include/c++/7/bits/stl_algobase.h **** 
  51:/usr/include/c++/7/bits/stl_algobase.h **** /** @file bits/stl_algobase.h
  52:/usr/include/c++/7/bits/stl_algobase.h ****  *  This is an internal header file, included by other library headers.
  53:/usr/include/c++/7/bits/stl_algobase.h ****  *  Do not attempt to use it directly. @headername{algorithm}
  54:/usr/include/c++/7/bits/stl_algobase.h ****  */
  55:/usr/include/c++/7/bits/stl_algobase.h **** 
  56:/usr/include/c++/7/bits/stl_algobase.h **** #ifndef _STL_ALGOBASE_H
  57:/usr/include/c++/7/bits/stl_algobase.h **** #define _STL_ALGOBASE_H 1
  58:/usr/include/c++/7/bits/stl_algobase.h **** 
  59:/usr/include/c++/7/bits/stl_algobase.h **** #include <bits/c++config.h>
  60:/usr/include/c++/7/bits/stl_algobase.h **** #include <bits/functexcept.h>
  61:/usr/include/c++/7/bits/stl_algobase.h **** #include <bits/cpp_type_traits.h>
GAS LISTING /tmp/ccTfuPTI.s 			page 36


  62:/usr/include/c++/7/bits/stl_algobase.h **** #include <ext/type_traits.h>
  63:/usr/include/c++/7/bits/stl_algobase.h **** #include <ext/numeric_traits.h>
  64:/usr/include/c++/7/bits/stl_algobase.h **** #include <bits/stl_pair.h>
  65:/usr/include/c++/7/bits/stl_algobase.h **** #include <bits/stl_iterator_base_types.h>
  66:/usr/include/c++/7/bits/stl_algobase.h **** #include <bits/stl_iterator_base_funcs.h>
  67:/usr/include/c++/7/bits/stl_algobase.h **** #include <bits/stl_iterator.h>
  68:/usr/include/c++/7/bits/stl_algobase.h **** #include <bits/concept_check.h>
  69:/usr/include/c++/7/bits/stl_algobase.h **** #include <debug/debug.h>
  70:/usr/include/c++/7/bits/stl_algobase.h **** #include <bits/move.h> // For std::swap and _GLIBCXX_MOVE
  71:/usr/include/c++/7/bits/stl_algobase.h **** #include <bits/predefined_ops.h>
  72:/usr/include/c++/7/bits/stl_algobase.h **** 
  73:/usr/include/c++/7/bits/stl_algobase.h **** namespace std _GLIBCXX_VISIBILITY(default)
  74:/usr/include/c++/7/bits/stl_algobase.h **** {
  75:/usr/include/c++/7/bits/stl_algobase.h **** _GLIBCXX_BEGIN_NAMESPACE_VERSION
  76:/usr/include/c++/7/bits/stl_algobase.h **** 
  77:/usr/include/c++/7/bits/stl_algobase.h **** #if __cplusplus < 201103L
  78:/usr/include/c++/7/bits/stl_algobase.h ****   // See http://gcc.gnu.org/ml/libstdc++/2004-08/msg00167.html: in a
  79:/usr/include/c++/7/bits/stl_algobase.h ****   // nutshell, we are partially implementing the resolution of DR 187,
  80:/usr/include/c++/7/bits/stl_algobase.h ****   // when it's safe, i.e., the value_types are equal.
  81:/usr/include/c++/7/bits/stl_algobase.h ****   template<bool _BoolType>
  82:/usr/include/c++/7/bits/stl_algobase.h ****     struct __iter_swap
  83:/usr/include/c++/7/bits/stl_algobase.h ****     {
  84:/usr/include/c++/7/bits/stl_algobase.h ****       template<typename _ForwardIterator1, typename _ForwardIterator2>
  85:/usr/include/c++/7/bits/stl_algobase.h ****         static void
  86:/usr/include/c++/7/bits/stl_algobase.h ****         iter_swap(_ForwardIterator1 __a, _ForwardIterator2 __b)
  87:/usr/include/c++/7/bits/stl_algobase.h ****         {
  88:/usr/include/c++/7/bits/stl_algobase.h ****           typedef typename iterator_traits<_ForwardIterator1>::value_type
  89:/usr/include/c++/7/bits/stl_algobase.h ****             _ValueType1;
  90:/usr/include/c++/7/bits/stl_algobase.h ****           _ValueType1 __tmp = _GLIBCXX_MOVE(*__a);
  91:/usr/include/c++/7/bits/stl_algobase.h ****           *__a = _GLIBCXX_MOVE(*__b);
  92:/usr/include/c++/7/bits/stl_algobase.h ****           *__b = _GLIBCXX_MOVE(__tmp);
  93:/usr/include/c++/7/bits/stl_algobase.h **** 	}
  94:/usr/include/c++/7/bits/stl_algobase.h ****     };
  95:/usr/include/c++/7/bits/stl_algobase.h **** 
  96:/usr/include/c++/7/bits/stl_algobase.h ****   template<>
  97:/usr/include/c++/7/bits/stl_algobase.h ****     struct __iter_swap<true>
  98:/usr/include/c++/7/bits/stl_algobase.h ****     {
  99:/usr/include/c++/7/bits/stl_algobase.h ****       template<typename _ForwardIterator1, typename _ForwardIterator2>
 100:/usr/include/c++/7/bits/stl_algobase.h ****         static void 
 101:/usr/include/c++/7/bits/stl_algobase.h ****         iter_swap(_ForwardIterator1 __a, _ForwardIterator2 __b)
 102:/usr/include/c++/7/bits/stl_algobase.h ****         {
 103:/usr/include/c++/7/bits/stl_algobase.h ****           swap(*__a, *__b);
 104:/usr/include/c++/7/bits/stl_algobase.h ****         }
 105:/usr/include/c++/7/bits/stl_algobase.h ****     };
 106:/usr/include/c++/7/bits/stl_algobase.h **** #endif
 107:/usr/include/c++/7/bits/stl_algobase.h **** 
 108:/usr/include/c++/7/bits/stl_algobase.h ****   /**
 109:/usr/include/c++/7/bits/stl_algobase.h ****    *  @brief Swaps the contents of two iterators.
 110:/usr/include/c++/7/bits/stl_algobase.h ****    *  @ingroup mutating_algorithms
 111:/usr/include/c++/7/bits/stl_algobase.h ****    *  @param  __a  An iterator.
 112:/usr/include/c++/7/bits/stl_algobase.h ****    *  @param  __b  Another iterator.
 113:/usr/include/c++/7/bits/stl_algobase.h ****    *  @return   Nothing.
 114:/usr/include/c++/7/bits/stl_algobase.h ****    *
 115:/usr/include/c++/7/bits/stl_algobase.h ****    *  This function swaps the values pointed to by two iterators, not the
 116:/usr/include/c++/7/bits/stl_algobase.h ****    *  iterators themselves.
 117:/usr/include/c++/7/bits/stl_algobase.h ****   */
 118:/usr/include/c++/7/bits/stl_algobase.h ****   template<typename _ForwardIterator1, typename _ForwardIterator2>
GAS LISTING /tmp/ccTfuPTI.s 			page 37


 119:/usr/include/c++/7/bits/stl_algobase.h ****     inline void
 120:/usr/include/c++/7/bits/stl_algobase.h ****     iter_swap(_ForwardIterator1 __a, _ForwardIterator2 __b)
 121:/usr/include/c++/7/bits/stl_algobase.h ****     {
 122:/usr/include/c++/7/bits/stl_algobase.h ****       // concept requirements
 123:/usr/include/c++/7/bits/stl_algobase.h ****       __glibcxx_function_requires(_Mutable_ForwardIteratorConcept<
 124:/usr/include/c++/7/bits/stl_algobase.h **** 				  _ForwardIterator1>)
 125:/usr/include/c++/7/bits/stl_algobase.h ****       __glibcxx_function_requires(_Mutable_ForwardIteratorConcept<
 126:/usr/include/c++/7/bits/stl_algobase.h **** 				  _ForwardIterator2>)
 127:/usr/include/c++/7/bits/stl_algobase.h **** 
 128:/usr/include/c++/7/bits/stl_algobase.h **** #if __cplusplus < 201103L
 129:/usr/include/c++/7/bits/stl_algobase.h ****       typedef typename iterator_traits<_ForwardIterator1>::value_type
 130:/usr/include/c++/7/bits/stl_algobase.h **** 	_ValueType1;
 131:/usr/include/c++/7/bits/stl_algobase.h ****       typedef typename iterator_traits<_ForwardIterator2>::value_type
 132:/usr/include/c++/7/bits/stl_algobase.h **** 	_ValueType2;
 133:/usr/include/c++/7/bits/stl_algobase.h **** 
 134:/usr/include/c++/7/bits/stl_algobase.h ****       __glibcxx_function_requires(_ConvertibleConcept<_ValueType1,
 135:/usr/include/c++/7/bits/stl_algobase.h **** 				  _ValueType2>)
 136:/usr/include/c++/7/bits/stl_algobase.h ****       __glibcxx_function_requires(_ConvertibleConcept<_ValueType2,
 137:/usr/include/c++/7/bits/stl_algobase.h **** 				  _ValueType1>)
 138:/usr/include/c++/7/bits/stl_algobase.h **** 
 139:/usr/include/c++/7/bits/stl_algobase.h ****       typedef typename iterator_traits<_ForwardIterator1>::reference
 140:/usr/include/c++/7/bits/stl_algobase.h **** 	_ReferenceType1;
 141:/usr/include/c++/7/bits/stl_algobase.h ****       typedef typename iterator_traits<_ForwardIterator2>::reference
 142:/usr/include/c++/7/bits/stl_algobase.h **** 	_ReferenceType2;
 143:/usr/include/c++/7/bits/stl_algobase.h ****       std::__iter_swap<__are_same<_ValueType1, _ValueType2>::__value
 144:/usr/include/c++/7/bits/stl_algobase.h **** 	&& __are_same<_ValueType1&, _ReferenceType1>::__value
 145:/usr/include/c++/7/bits/stl_algobase.h **** 	&& __are_same<_ValueType2&, _ReferenceType2>::__value>::
 146:/usr/include/c++/7/bits/stl_algobase.h **** 	iter_swap(__a, __b);
 147:/usr/include/c++/7/bits/stl_algobase.h **** #else
 148:/usr/include/c++/7/bits/stl_algobase.h ****       swap(*__a, *__b);
 149:/usr/include/c++/7/bits/stl_algobase.h **** #endif
 150:/usr/include/c++/7/bits/stl_algobase.h ****     }
 151:/usr/include/c++/7/bits/stl_algobase.h **** 
 152:/usr/include/c++/7/bits/stl_algobase.h ****   /**
 153:/usr/include/c++/7/bits/stl_algobase.h ****    *  @brief Swap the elements of two sequences.
 154:/usr/include/c++/7/bits/stl_algobase.h ****    *  @ingroup mutating_algorithms
 155:/usr/include/c++/7/bits/stl_algobase.h ****    *  @param  __first1  A forward iterator.
 156:/usr/include/c++/7/bits/stl_algobase.h ****    *  @param  __last1   A forward iterator.
 157:/usr/include/c++/7/bits/stl_algobase.h ****    *  @param  __first2  A forward iterator.
 158:/usr/include/c++/7/bits/stl_algobase.h ****    *  @return   An iterator equal to @p first2+(last1-first1).
 159:/usr/include/c++/7/bits/stl_algobase.h ****    *
 160:/usr/include/c++/7/bits/stl_algobase.h ****    *  Swaps each element in the range @p [first1,last1) with the
 161:/usr/include/c++/7/bits/stl_algobase.h ****    *  corresponding element in the range @p [first2,(last1-first1)).
 162:/usr/include/c++/7/bits/stl_algobase.h ****    *  The ranges must not overlap.
 163:/usr/include/c++/7/bits/stl_algobase.h ****   */
 164:/usr/include/c++/7/bits/stl_algobase.h ****   template<typename _ForwardIterator1, typename _ForwardIterator2>
 165:/usr/include/c++/7/bits/stl_algobase.h ****     _ForwardIterator2
 166:/usr/include/c++/7/bits/stl_algobase.h ****     swap_ranges(_ForwardIterator1 __first1, _ForwardIterator1 __last1,
 167:/usr/include/c++/7/bits/stl_algobase.h **** 		_ForwardIterator2 __first2)
 168:/usr/include/c++/7/bits/stl_algobase.h ****     {
 169:/usr/include/c++/7/bits/stl_algobase.h ****       // concept requirements
 170:/usr/include/c++/7/bits/stl_algobase.h ****       __glibcxx_function_requires(_Mutable_ForwardIteratorConcept<
 171:/usr/include/c++/7/bits/stl_algobase.h **** 				  _ForwardIterator1>)
 172:/usr/include/c++/7/bits/stl_algobase.h ****       __glibcxx_function_requires(_Mutable_ForwardIteratorConcept<
 173:/usr/include/c++/7/bits/stl_algobase.h **** 				  _ForwardIterator2>)
 174:/usr/include/c++/7/bits/stl_algobase.h ****       __glibcxx_requires_valid_range(__first1, __last1);
 175:/usr/include/c++/7/bits/stl_algobase.h **** 
GAS LISTING /tmp/ccTfuPTI.s 			page 38


 176:/usr/include/c++/7/bits/stl_algobase.h ****       for (; __first1 != __last1; ++__first1, (void)++__first2)
 177:/usr/include/c++/7/bits/stl_algobase.h **** 	std::iter_swap(__first1, __first2);
 178:/usr/include/c++/7/bits/stl_algobase.h ****       return __first2;
 179:/usr/include/c++/7/bits/stl_algobase.h ****     }
 180:/usr/include/c++/7/bits/stl_algobase.h **** 
 181:/usr/include/c++/7/bits/stl_algobase.h ****   /**
 182:/usr/include/c++/7/bits/stl_algobase.h ****    *  @brief This does what you think it does.
 183:/usr/include/c++/7/bits/stl_algobase.h ****    *  @ingroup sorting_algorithms
 184:/usr/include/c++/7/bits/stl_algobase.h ****    *  @param  __a  A thing of arbitrary type.
 185:/usr/include/c++/7/bits/stl_algobase.h ****    *  @param  __b  Another thing of arbitrary type.
 186:/usr/include/c++/7/bits/stl_algobase.h ****    *  @return   The lesser of the parameters.
 187:/usr/include/c++/7/bits/stl_algobase.h ****    *
 188:/usr/include/c++/7/bits/stl_algobase.h ****    *  This is the simple classic generic implementation.  It will work on
 189:/usr/include/c++/7/bits/stl_algobase.h ****    *  temporary expressions, since they are only evaluated once, unlike a
 190:/usr/include/c++/7/bits/stl_algobase.h ****    *  preprocessor macro.
 191:/usr/include/c++/7/bits/stl_algobase.h ****   */
 192:/usr/include/c++/7/bits/stl_algobase.h ****   template<typename _Tp>
 193:/usr/include/c++/7/bits/stl_algobase.h ****     _GLIBCXX14_CONSTEXPR
 194:/usr/include/c++/7/bits/stl_algobase.h ****     inline const _Tp&
 195:/usr/include/c++/7/bits/stl_algobase.h ****     min(const _Tp& __a, const _Tp& __b)
 196:/usr/include/c++/7/bits/stl_algobase.h ****     {
 197:/usr/include/c++/7/bits/stl_algobase.h ****       // concept requirements
 198:/usr/include/c++/7/bits/stl_algobase.h ****       __glibcxx_function_requires(_LessThanComparableConcept<_Tp>)
 199:/usr/include/c++/7/bits/stl_algobase.h ****       //return __b < __a ? __b : __a;
 200:/usr/include/c++/7/bits/stl_algobase.h ****       if (__b < __a)
 201:/usr/include/c++/7/bits/stl_algobase.h **** 	return __b;
 202:/usr/include/c++/7/bits/stl_algobase.h ****       return __a;
 203:/usr/include/c++/7/bits/stl_algobase.h ****     }
 204:/usr/include/c++/7/bits/stl_algobase.h **** 
 205:/usr/include/c++/7/bits/stl_algobase.h ****   /**
 206:/usr/include/c++/7/bits/stl_algobase.h ****    *  @brief This does what you think it does.
 207:/usr/include/c++/7/bits/stl_algobase.h ****    *  @ingroup sorting_algorithms
 208:/usr/include/c++/7/bits/stl_algobase.h ****    *  @param  __a  A thing of arbitrary type.
 209:/usr/include/c++/7/bits/stl_algobase.h ****    *  @param  __b  Another thing of arbitrary type.
 210:/usr/include/c++/7/bits/stl_algobase.h ****    *  @return   The greater of the parameters.
 211:/usr/include/c++/7/bits/stl_algobase.h ****    *
 212:/usr/include/c++/7/bits/stl_algobase.h ****    *  This is the simple classic generic implementation.  It will work on
 213:/usr/include/c++/7/bits/stl_algobase.h ****    *  temporary expressions, since they are only evaluated once, unlike a
 214:/usr/include/c++/7/bits/stl_algobase.h ****    *  preprocessor macro.
 215:/usr/include/c++/7/bits/stl_algobase.h ****   */
 216:/usr/include/c++/7/bits/stl_algobase.h ****   template<typename _Tp>
 217:/usr/include/c++/7/bits/stl_algobase.h ****     _GLIBCXX14_CONSTEXPR
 218:/usr/include/c++/7/bits/stl_algobase.h ****     inline const _Tp&
 219:/usr/include/c++/7/bits/stl_algobase.h ****     max(const _Tp& __a, const _Tp& __b)
 220:/usr/include/c++/7/bits/stl_algobase.h ****     {
 221:/usr/include/c++/7/bits/stl_algobase.h ****       // concept requirements
 222:/usr/include/c++/7/bits/stl_algobase.h ****       __glibcxx_function_requires(_LessThanComparableConcept<_Tp>)
 223:/usr/include/c++/7/bits/stl_algobase.h ****       //return  __a < __b ? __b : __a;
 224:/usr/include/c++/7/bits/stl_algobase.h ****       if (__a < __b)
 225:/usr/include/c++/7/bits/stl_algobase.h **** 	return __b;
 226:/usr/include/c++/7/bits/stl_algobase.h ****       return __a;
 227:/usr/include/c++/7/bits/stl_algobase.h ****     }
 228:/usr/include/c++/7/bits/stl_algobase.h **** 
 229:/usr/include/c++/7/bits/stl_algobase.h ****   /**
 230:/usr/include/c++/7/bits/stl_algobase.h ****    *  @brief This does what you think it does.
 231:/usr/include/c++/7/bits/stl_algobase.h ****    *  @ingroup sorting_algorithms
 232:/usr/include/c++/7/bits/stl_algobase.h ****    *  @param  __a  A thing of arbitrary type.
GAS LISTING /tmp/ccTfuPTI.s 			page 39


 233:/usr/include/c++/7/bits/stl_algobase.h ****    *  @param  __b  Another thing of arbitrary type.
 234:/usr/include/c++/7/bits/stl_algobase.h ****    *  @param  __comp  A @link comparison_functors comparison functor@endlink.
 235:/usr/include/c++/7/bits/stl_algobase.h ****    *  @return   The lesser of the parameters.
 236:/usr/include/c++/7/bits/stl_algobase.h ****    *
 237:/usr/include/c++/7/bits/stl_algobase.h ****    *  This will work on temporary expressions, since they are only evaluated
 238:/usr/include/c++/7/bits/stl_algobase.h ****    *  once, unlike a preprocessor macro.
 239:/usr/include/c++/7/bits/stl_algobase.h ****   */
 240:/usr/include/c++/7/bits/stl_algobase.h ****   template<typename _Tp, typename _Compare>
 241:/usr/include/c++/7/bits/stl_algobase.h ****     _GLIBCXX14_CONSTEXPR
 242:/usr/include/c++/7/bits/stl_algobase.h ****     inline const _Tp&
 243:/usr/include/c++/7/bits/stl_algobase.h ****     min(const _Tp& __a, const _Tp& __b, _Compare __comp)
 244:/usr/include/c++/7/bits/stl_algobase.h ****     {
 245:/usr/include/c++/7/bits/stl_algobase.h ****       //return __comp(__b, __a) ? __b : __a;
 246:/usr/include/c++/7/bits/stl_algobase.h ****       if (__comp(__b, __a))
 247:/usr/include/c++/7/bits/stl_algobase.h **** 	return __b;
 248:/usr/include/c++/7/bits/stl_algobase.h ****       return __a;
 249:/usr/include/c++/7/bits/stl_algobase.h ****     }
 250:/usr/include/c++/7/bits/stl_algobase.h **** 
 251:/usr/include/c++/7/bits/stl_algobase.h ****   /**
 252:/usr/include/c++/7/bits/stl_algobase.h ****    *  @brief This does what you think it does.
 253:/usr/include/c++/7/bits/stl_algobase.h ****    *  @ingroup sorting_algorithms
 254:/usr/include/c++/7/bits/stl_algobase.h ****    *  @param  __a  A thing of arbitrary type.
 255:/usr/include/c++/7/bits/stl_algobase.h ****    *  @param  __b  Another thing of arbitrary type.
 256:/usr/include/c++/7/bits/stl_algobase.h ****    *  @param  __comp  A @link comparison_functors comparison functor@endlink.
 257:/usr/include/c++/7/bits/stl_algobase.h ****    *  @return   The greater of the parameters.
 258:/usr/include/c++/7/bits/stl_algobase.h ****    *
 259:/usr/include/c++/7/bits/stl_algobase.h ****    *  This will work on temporary expressions, since they are only evaluated
 260:/usr/include/c++/7/bits/stl_algobase.h ****    *  once, unlike a preprocessor macro.
 261:/usr/include/c++/7/bits/stl_algobase.h ****   */
 262:/usr/include/c++/7/bits/stl_algobase.h ****   template<typename _Tp, typename _Compare>
 263:/usr/include/c++/7/bits/stl_algobase.h ****     _GLIBCXX14_CONSTEXPR
 264:/usr/include/c++/7/bits/stl_algobase.h ****     inline const _Tp&
 265:/usr/include/c++/7/bits/stl_algobase.h ****     max(const _Tp& __a, const _Tp& __b, _Compare __comp)
 266:/usr/include/c++/7/bits/stl_algobase.h ****     {
 267:/usr/include/c++/7/bits/stl_algobase.h ****       //return __comp(__a, __b) ? __b : __a;
 268:/usr/include/c++/7/bits/stl_algobase.h ****       if (__comp(__a, __b))
 269:/usr/include/c++/7/bits/stl_algobase.h **** 	return __b;
 270:/usr/include/c++/7/bits/stl_algobase.h ****       return __a;
 271:/usr/include/c++/7/bits/stl_algobase.h ****     }
 272:/usr/include/c++/7/bits/stl_algobase.h **** 
 273:/usr/include/c++/7/bits/stl_algobase.h ****   // Fallback implementation of the function in bits/stl_iterator.h used to
 274:/usr/include/c++/7/bits/stl_algobase.h ****   // remove the __normal_iterator wrapper. See copy, fill, ...
 275:/usr/include/c++/7/bits/stl_algobase.h ****   template<typename _Iterator>
 276:/usr/include/c++/7/bits/stl_algobase.h ****     inline _Iterator
 277:/usr/include/c++/7/bits/stl_algobase.h ****     __niter_base(_Iterator __it)
 278:/usr/include/c++/7/bits/stl_algobase.h ****     { return __it; }
 279:/usr/include/c++/7/bits/stl_algobase.h **** 
 280:/usr/include/c++/7/bits/stl_algobase.h ****   // All of these auxiliary structs serve two purposes.  (1) Replace
 281:/usr/include/c++/7/bits/stl_algobase.h ****   // calls to copy with memmove whenever possible.  (Memmove, not memcpy,
 282:/usr/include/c++/7/bits/stl_algobase.h ****   // because the input and output ranges are permitted to overlap.)
 283:/usr/include/c++/7/bits/stl_algobase.h ****   // (2) If we're using random access iterators, then write the loop as
 284:/usr/include/c++/7/bits/stl_algobase.h ****   // a for loop with an explicit count.
 285:/usr/include/c++/7/bits/stl_algobase.h **** 
 286:/usr/include/c++/7/bits/stl_algobase.h ****   template<bool, bool, typename>
 287:/usr/include/c++/7/bits/stl_algobase.h ****     struct __copy_move
 288:/usr/include/c++/7/bits/stl_algobase.h ****     {
 289:/usr/include/c++/7/bits/stl_algobase.h ****       template<typename _II, typename _OI>
GAS LISTING /tmp/ccTfuPTI.s 			page 40


 290:/usr/include/c++/7/bits/stl_algobase.h ****         static _OI
 291:/usr/include/c++/7/bits/stl_algobase.h ****         __copy_m(_II __first, _II __last, _OI __result)
 292:/usr/include/c++/7/bits/stl_algobase.h ****         {
 293:/usr/include/c++/7/bits/stl_algobase.h **** 	  for (; __first != __last; ++__result, (void)++__first)
 294:/usr/include/c++/7/bits/stl_algobase.h **** 	    *__result = *__first;
 295:/usr/include/c++/7/bits/stl_algobase.h **** 	  return __result;
 296:/usr/include/c++/7/bits/stl_algobase.h **** 	}
 297:/usr/include/c++/7/bits/stl_algobase.h ****     };
 298:/usr/include/c++/7/bits/stl_algobase.h **** 
 299:/usr/include/c++/7/bits/stl_algobase.h **** #if __cplusplus >= 201103L
 300:/usr/include/c++/7/bits/stl_algobase.h ****   template<typename _Category>
 301:/usr/include/c++/7/bits/stl_algobase.h ****     struct __copy_move<true, false, _Category>
 302:/usr/include/c++/7/bits/stl_algobase.h ****     {
 303:/usr/include/c++/7/bits/stl_algobase.h ****       template<typename _II, typename _OI>
 304:/usr/include/c++/7/bits/stl_algobase.h ****         static _OI
 305:/usr/include/c++/7/bits/stl_algobase.h ****         __copy_m(_II __first, _II __last, _OI __result)
 306:/usr/include/c++/7/bits/stl_algobase.h ****         {
 307:/usr/include/c++/7/bits/stl_algobase.h **** 	  for (; __first != __last; ++__result, (void)++__first)
 308:/usr/include/c++/7/bits/stl_algobase.h **** 	    *__result = std::move(*__first);
 309:/usr/include/c++/7/bits/stl_algobase.h **** 	  return __result;
 310:/usr/include/c++/7/bits/stl_algobase.h **** 	}
 311:/usr/include/c++/7/bits/stl_algobase.h ****     };
 312:/usr/include/c++/7/bits/stl_algobase.h **** #endif
 313:/usr/include/c++/7/bits/stl_algobase.h **** 
 314:/usr/include/c++/7/bits/stl_algobase.h ****   template<>
 315:/usr/include/c++/7/bits/stl_algobase.h ****     struct __copy_move<false, false, random_access_iterator_tag>
 316:/usr/include/c++/7/bits/stl_algobase.h ****     {
 317:/usr/include/c++/7/bits/stl_algobase.h ****       template<typename _II, typename _OI>
 318:/usr/include/c++/7/bits/stl_algobase.h ****         static _OI
 319:/usr/include/c++/7/bits/stl_algobase.h ****         __copy_m(_II __first, _II __last, _OI __result)
 320:/usr/include/c++/7/bits/stl_algobase.h ****         { 
 321:/usr/include/c++/7/bits/stl_algobase.h **** 	  typedef typename iterator_traits<_II>::difference_type _Distance;
 322:/usr/include/c++/7/bits/stl_algobase.h **** 	  for(_Distance __n = __last - __first; __n > 0; --__n)
 323:/usr/include/c++/7/bits/stl_algobase.h **** 	    {
 324:/usr/include/c++/7/bits/stl_algobase.h **** 	      *__result = *__first;
 325:/usr/include/c++/7/bits/stl_algobase.h **** 	      ++__first;
 326:/usr/include/c++/7/bits/stl_algobase.h **** 	      ++__result;
 327:/usr/include/c++/7/bits/stl_algobase.h **** 	    }
 328:/usr/include/c++/7/bits/stl_algobase.h **** 	  return __result;
 329:/usr/include/c++/7/bits/stl_algobase.h **** 	}
 330:/usr/include/c++/7/bits/stl_algobase.h ****     };
 331:/usr/include/c++/7/bits/stl_algobase.h **** 
 332:/usr/include/c++/7/bits/stl_algobase.h **** #if __cplusplus >= 201103L
 333:/usr/include/c++/7/bits/stl_algobase.h ****   template<>
 334:/usr/include/c++/7/bits/stl_algobase.h ****     struct __copy_move<true, false, random_access_iterator_tag>
 335:/usr/include/c++/7/bits/stl_algobase.h ****     {
 336:/usr/include/c++/7/bits/stl_algobase.h ****       template<typename _II, typename _OI>
 337:/usr/include/c++/7/bits/stl_algobase.h ****         static _OI
 338:/usr/include/c++/7/bits/stl_algobase.h ****         __copy_m(_II __first, _II __last, _OI __result)
 339:/usr/include/c++/7/bits/stl_algobase.h ****         { 
 340:/usr/include/c++/7/bits/stl_algobase.h **** 	  typedef typename iterator_traits<_II>::difference_type _Distance;
 341:/usr/include/c++/7/bits/stl_algobase.h **** 	  for(_Distance __n = __last - __first; __n > 0; --__n)
 342:/usr/include/c++/7/bits/stl_algobase.h **** 	    {
 343:/usr/include/c++/7/bits/stl_algobase.h **** 	      *__result = std::move(*__first);
 344:/usr/include/c++/7/bits/stl_algobase.h **** 	      ++__first;
 345:/usr/include/c++/7/bits/stl_algobase.h **** 	      ++__result;
 346:/usr/include/c++/7/bits/stl_algobase.h **** 	    }
GAS LISTING /tmp/ccTfuPTI.s 			page 41


 347:/usr/include/c++/7/bits/stl_algobase.h **** 	  return __result;
 348:/usr/include/c++/7/bits/stl_algobase.h **** 	}
 349:/usr/include/c++/7/bits/stl_algobase.h ****     };
 350:/usr/include/c++/7/bits/stl_algobase.h **** #endif
 351:/usr/include/c++/7/bits/stl_algobase.h **** 
 352:/usr/include/c++/7/bits/stl_algobase.h ****   template<bool _IsMove>
 353:/usr/include/c++/7/bits/stl_algobase.h ****     struct __copy_move<_IsMove, true, random_access_iterator_tag>
 354:/usr/include/c++/7/bits/stl_algobase.h ****     {
 355:/usr/include/c++/7/bits/stl_algobase.h ****       template<typename _Tp>
 356:/usr/include/c++/7/bits/stl_algobase.h ****         static _Tp*
 357:/usr/include/c++/7/bits/stl_algobase.h ****         __copy_m(const _Tp* __first, const _Tp* __last, _Tp* __result)
 358:/usr/include/c++/7/bits/stl_algobase.h ****         {
 359:/usr/include/c++/7/bits/stl_algobase.h **** #if __cplusplus >= 201103L
 360:/usr/include/c++/7/bits/stl_algobase.h **** 	  using __assignable = conditional<_IsMove,
 361:/usr/include/c++/7/bits/stl_algobase.h **** 					   is_move_assignable<_Tp>,
 362:/usr/include/c++/7/bits/stl_algobase.h **** 					   is_copy_assignable<_Tp>>;
 363:/usr/include/c++/7/bits/stl_algobase.h **** 	  // trivial types can have deleted assignment
 364:/usr/include/c++/7/bits/stl_algobase.h **** 	  static_assert( __assignable::type::value, "type is not assignable" );
 365:/usr/include/c++/7/bits/stl_algobase.h **** #endif
 366:/usr/include/c++/7/bits/stl_algobase.h **** 	  const ptrdiff_t _Num = __last - __first;
 367:/usr/include/c++/7/bits/stl_algobase.h **** 	  if (_Num)
 368:/usr/include/c++/7/bits/stl_algobase.h **** 	    __builtin_memmove(__result, __first, sizeof(_Tp) * _Num);
 369:/usr/include/c++/7/bits/stl_algobase.h **** 	  return __result + _Num;
 370:/usr/include/c++/7/bits/stl_algobase.h **** 	}
 371:/usr/include/c++/7/bits/stl_algobase.h ****     };
 372:/usr/include/c++/7/bits/stl_algobase.h **** 
 373:/usr/include/c++/7/bits/stl_algobase.h ****   template<bool _IsMove, typename _II, typename _OI>
 374:/usr/include/c++/7/bits/stl_algobase.h ****     inline _OI
 375:/usr/include/c++/7/bits/stl_algobase.h ****     __copy_move_a(_II __first, _II __last, _OI __result)
 376:/usr/include/c++/7/bits/stl_algobase.h ****     {
 377:/usr/include/c++/7/bits/stl_algobase.h ****       typedef typename iterator_traits<_II>::value_type _ValueTypeI;
 378:/usr/include/c++/7/bits/stl_algobase.h ****       typedef typename iterator_traits<_OI>::value_type _ValueTypeO;
 379:/usr/include/c++/7/bits/stl_algobase.h ****       typedef typename iterator_traits<_II>::iterator_category _Category;
 380:/usr/include/c++/7/bits/stl_algobase.h ****       const bool __simple = (__is_trivial(_ValueTypeI)
 381:/usr/include/c++/7/bits/stl_algobase.h **** 	                     && __is_pointer<_II>::__value
 382:/usr/include/c++/7/bits/stl_algobase.h **** 	                     && __is_pointer<_OI>::__value
 383:/usr/include/c++/7/bits/stl_algobase.h **** 			     && __are_same<_ValueTypeI, _ValueTypeO>::__value);
 384:/usr/include/c++/7/bits/stl_algobase.h **** 
 385:/usr/include/c++/7/bits/stl_algobase.h ****       return std::__copy_move<_IsMove, __simple,
 386:/usr/include/c++/7/bits/stl_algobase.h **** 	                      _Category>::__copy_m(__first, __last, __result);
 387:/usr/include/c++/7/bits/stl_algobase.h ****     }
 388:/usr/include/c++/7/bits/stl_algobase.h **** 
 389:/usr/include/c++/7/bits/stl_algobase.h ****   // Helpers for streambuf iterators (either istream or ostream).
 390:/usr/include/c++/7/bits/stl_algobase.h ****   // NB: avoid including <iosfwd>, relatively large.
 391:/usr/include/c++/7/bits/stl_algobase.h ****   template<typename _CharT>
 392:/usr/include/c++/7/bits/stl_algobase.h ****     struct char_traits;
 393:/usr/include/c++/7/bits/stl_algobase.h **** 
 394:/usr/include/c++/7/bits/stl_algobase.h ****   template<typename _CharT, typename _Traits>
 395:/usr/include/c++/7/bits/stl_algobase.h ****     class istreambuf_iterator;
 396:/usr/include/c++/7/bits/stl_algobase.h **** 
 397:/usr/include/c++/7/bits/stl_algobase.h ****   template<typename _CharT, typename _Traits>
 398:/usr/include/c++/7/bits/stl_algobase.h ****     class ostreambuf_iterator;
 399:/usr/include/c++/7/bits/stl_algobase.h **** 
 400:/usr/include/c++/7/bits/stl_algobase.h ****   template<bool _IsMove, typename _CharT>
 401:/usr/include/c++/7/bits/stl_algobase.h ****     typename __gnu_cxx::__enable_if<__is_char<_CharT>::__value, 
 402:/usr/include/c++/7/bits/stl_algobase.h **** 	     ostreambuf_iterator<_CharT, char_traits<_CharT> > >::__type
 403:/usr/include/c++/7/bits/stl_algobase.h ****     __copy_move_a2(_CharT*, _CharT*,
GAS LISTING /tmp/ccTfuPTI.s 			page 42


 404:/usr/include/c++/7/bits/stl_algobase.h **** 		   ostreambuf_iterator<_CharT, char_traits<_CharT> >);
 405:/usr/include/c++/7/bits/stl_algobase.h **** 
 406:/usr/include/c++/7/bits/stl_algobase.h ****   template<bool _IsMove, typename _CharT>
 407:/usr/include/c++/7/bits/stl_algobase.h ****     typename __gnu_cxx::__enable_if<__is_char<_CharT>::__value, 
 408:/usr/include/c++/7/bits/stl_algobase.h **** 	     ostreambuf_iterator<_CharT, char_traits<_CharT> > >::__type
 409:/usr/include/c++/7/bits/stl_algobase.h ****     __copy_move_a2(const _CharT*, const _CharT*,
 410:/usr/include/c++/7/bits/stl_algobase.h **** 		   ostreambuf_iterator<_CharT, char_traits<_CharT> >);
 411:/usr/include/c++/7/bits/stl_algobase.h **** 
 412:/usr/include/c++/7/bits/stl_algobase.h ****   template<bool _IsMove, typename _CharT>
 413:/usr/include/c++/7/bits/stl_algobase.h ****     typename __gnu_cxx::__enable_if<__is_char<_CharT>::__value,
 414:/usr/include/c++/7/bits/stl_algobase.h **** 				    _CharT*>::__type
 415:/usr/include/c++/7/bits/stl_algobase.h ****     __copy_move_a2(istreambuf_iterator<_CharT, char_traits<_CharT> >,
 416:/usr/include/c++/7/bits/stl_algobase.h **** 		   istreambuf_iterator<_CharT, char_traits<_CharT> >, _CharT*);
 417:/usr/include/c++/7/bits/stl_algobase.h **** 
 418:/usr/include/c++/7/bits/stl_algobase.h ****   template<bool _IsMove, typename _II, typename _OI>
 419:/usr/include/c++/7/bits/stl_algobase.h ****     inline _OI
 420:/usr/include/c++/7/bits/stl_algobase.h ****     __copy_move_a2(_II __first, _II __last, _OI __result)
 421:/usr/include/c++/7/bits/stl_algobase.h ****     {
 422:/usr/include/c++/7/bits/stl_algobase.h ****       return _OI(std::__copy_move_a<_IsMove>(std::__niter_base(__first),
 423:/usr/include/c++/7/bits/stl_algobase.h **** 					     std::__niter_base(__last),
 424:/usr/include/c++/7/bits/stl_algobase.h **** 					     std::__niter_base(__result)));
 425:/usr/include/c++/7/bits/stl_algobase.h ****     }
 426:/usr/include/c++/7/bits/stl_algobase.h **** 
 427:/usr/include/c++/7/bits/stl_algobase.h ****   /**
 428:/usr/include/c++/7/bits/stl_algobase.h ****    *  @brief Copies the range [first,last) into result.
 429:/usr/include/c++/7/bits/stl_algobase.h ****    *  @ingroup mutating_algorithms
 430:/usr/include/c++/7/bits/stl_algobase.h ****    *  @param  __first  An input iterator.
 431:/usr/include/c++/7/bits/stl_algobase.h ****    *  @param  __last   An input iterator.
 432:/usr/include/c++/7/bits/stl_algobase.h ****    *  @param  __result An output iterator.
 433:/usr/include/c++/7/bits/stl_algobase.h ****    *  @return   result + (first - last)
 434:/usr/include/c++/7/bits/stl_algobase.h ****    *
 435:/usr/include/c++/7/bits/stl_algobase.h ****    *  This inline function will boil down to a call to @c memmove whenever
 436:/usr/include/c++/7/bits/stl_algobase.h ****    *  possible.  Failing that, if random access iterators are passed, then the
 437:/usr/include/c++/7/bits/stl_algobase.h ****    *  loop count will be known (and therefore a candidate for compiler
 438:/usr/include/c++/7/bits/stl_algobase.h ****    *  optimizations such as unrolling).  Result may not be contained within
 439:/usr/include/c++/7/bits/stl_algobase.h ****    *  [first,last); the copy_backward function should be used instead.
 440:/usr/include/c++/7/bits/stl_algobase.h ****    *
 441:/usr/include/c++/7/bits/stl_algobase.h ****    *  Note that the end of the output range is permitted to be contained
 442:/usr/include/c++/7/bits/stl_algobase.h ****    *  within [first,last).
 443:/usr/include/c++/7/bits/stl_algobase.h ****   */
 444:/usr/include/c++/7/bits/stl_algobase.h ****   template<typename _II, typename _OI>
 445:/usr/include/c++/7/bits/stl_algobase.h ****     inline _OI
 446:/usr/include/c++/7/bits/stl_algobase.h ****     copy(_II __first, _II __last, _OI __result)
 447:/usr/include/c++/7/bits/stl_algobase.h ****     {
 448:/usr/include/c++/7/bits/stl_algobase.h ****       // concept requirements
 449:/usr/include/c++/7/bits/stl_algobase.h ****       __glibcxx_function_requires(_InputIteratorConcept<_II>)
 450:/usr/include/c++/7/bits/stl_algobase.h ****       __glibcxx_function_requires(_OutputIteratorConcept<_OI,
 451:/usr/include/c++/7/bits/stl_algobase.h **** 	    typename iterator_traits<_II>::value_type>)
 452:/usr/include/c++/7/bits/stl_algobase.h ****       __glibcxx_requires_valid_range(__first, __last);
 453:/usr/include/c++/7/bits/stl_algobase.h **** 
 454:/usr/include/c++/7/bits/stl_algobase.h ****       return (std::__copy_move_a2<__is_move_iterator<_II>::__value>
 455:/usr/include/c++/7/bits/stl_algobase.h **** 	      (std::__miter_base(__first), std::__miter_base(__last),
 456:/usr/include/c++/7/bits/stl_algobase.h **** 	       __result));
 457:/usr/include/c++/7/bits/stl_algobase.h ****     }
 458:/usr/include/c++/7/bits/stl_algobase.h **** 
 459:/usr/include/c++/7/bits/stl_algobase.h **** #if __cplusplus >= 201103L
 460:/usr/include/c++/7/bits/stl_algobase.h ****   /**
GAS LISTING /tmp/ccTfuPTI.s 			page 43


 461:/usr/include/c++/7/bits/stl_algobase.h ****    *  @brief Moves the range [first,last) into result.
 462:/usr/include/c++/7/bits/stl_algobase.h ****    *  @ingroup mutating_algorithms
 463:/usr/include/c++/7/bits/stl_algobase.h ****    *  @param  __first  An input iterator.
 464:/usr/include/c++/7/bits/stl_algobase.h ****    *  @param  __last   An input iterator.
 465:/usr/include/c++/7/bits/stl_algobase.h ****    *  @param  __result An output iterator.
 466:/usr/include/c++/7/bits/stl_algobase.h ****    *  @return   result + (first - last)
 467:/usr/include/c++/7/bits/stl_algobase.h ****    *
 468:/usr/include/c++/7/bits/stl_algobase.h ****    *  This inline function will boil down to a call to @c memmove whenever
 469:/usr/include/c++/7/bits/stl_algobase.h ****    *  possible.  Failing that, if random access iterators are passed, then the
 470:/usr/include/c++/7/bits/stl_algobase.h ****    *  loop count will be known (and therefore a candidate for compiler
 471:/usr/include/c++/7/bits/stl_algobase.h ****    *  optimizations such as unrolling).  Result may not be contained within
 472:/usr/include/c++/7/bits/stl_algobase.h ****    *  [first,last); the move_backward function should be used instead.
 473:/usr/include/c++/7/bits/stl_algobase.h ****    *
 474:/usr/include/c++/7/bits/stl_algobase.h ****    *  Note that the end of the output range is permitted to be contained
 475:/usr/include/c++/7/bits/stl_algobase.h ****    *  within [first,last).
 476:/usr/include/c++/7/bits/stl_algobase.h ****   */
 477:/usr/include/c++/7/bits/stl_algobase.h ****   template<typename _II, typename _OI>
 478:/usr/include/c++/7/bits/stl_algobase.h ****     inline _OI
 479:/usr/include/c++/7/bits/stl_algobase.h ****     move(_II __first, _II __last, _OI __result)
 480:/usr/include/c++/7/bits/stl_algobase.h ****     {
 481:/usr/include/c++/7/bits/stl_algobase.h ****       // concept requirements
 482:/usr/include/c++/7/bits/stl_algobase.h ****       __glibcxx_function_requires(_InputIteratorConcept<_II>)
 483:/usr/include/c++/7/bits/stl_algobase.h ****       __glibcxx_function_requires(_OutputIteratorConcept<_OI,
 484:/usr/include/c++/7/bits/stl_algobase.h **** 	    typename iterator_traits<_II>::value_type>)
 485:/usr/include/c++/7/bits/stl_algobase.h ****       __glibcxx_requires_valid_range(__first, __last);
 486:/usr/include/c++/7/bits/stl_algobase.h **** 
 487:/usr/include/c++/7/bits/stl_algobase.h ****       return std::__copy_move_a2<true>(std::__miter_base(__first),
 488:/usr/include/c++/7/bits/stl_algobase.h **** 				       std::__miter_base(__last), __result);
 489:/usr/include/c++/7/bits/stl_algobase.h ****     }
 490:/usr/include/c++/7/bits/stl_algobase.h **** 
 491:/usr/include/c++/7/bits/stl_algobase.h **** #define _GLIBCXX_MOVE3(_Tp, _Up, _Vp) std::move(_Tp, _Up, _Vp)
 492:/usr/include/c++/7/bits/stl_algobase.h **** #else
 493:/usr/include/c++/7/bits/stl_algobase.h **** #define _GLIBCXX_MOVE3(_Tp, _Up, _Vp) std::copy(_Tp, _Up, _Vp)
 494:/usr/include/c++/7/bits/stl_algobase.h **** #endif
 495:/usr/include/c++/7/bits/stl_algobase.h **** 
 496:/usr/include/c++/7/bits/stl_algobase.h ****   template<bool, bool, typename>
 497:/usr/include/c++/7/bits/stl_algobase.h ****     struct __copy_move_backward
 498:/usr/include/c++/7/bits/stl_algobase.h ****     {
 499:/usr/include/c++/7/bits/stl_algobase.h ****       template<typename _BI1, typename _BI2>
 500:/usr/include/c++/7/bits/stl_algobase.h ****         static _BI2
 501:/usr/include/c++/7/bits/stl_algobase.h ****         __copy_move_b(_BI1 __first, _BI1 __last, _BI2 __result)
 502:/usr/include/c++/7/bits/stl_algobase.h ****         {
 503:/usr/include/c++/7/bits/stl_algobase.h **** 	  while (__first != __last)
 504:/usr/include/c++/7/bits/stl_algobase.h **** 	    *--__result = *--__last;
 505:/usr/include/c++/7/bits/stl_algobase.h **** 	  return __result;
 506:/usr/include/c++/7/bits/stl_algobase.h **** 	}
 507:/usr/include/c++/7/bits/stl_algobase.h ****     };
 508:/usr/include/c++/7/bits/stl_algobase.h **** 
 509:/usr/include/c++/7/bits/stl_algobase.h **** #if __cplusplus >= 201103L
 510:/usr/include/c++/7/bits/stl_algobase.h ****   template<typename _Category>
 511:/usr/include/c++/7/bits/stl_algobase.h ****     struct __copy_move_backward<true, false, _Category>
 512:/usr/include/c++/7/bits/stl_algobase.h ****     {
 513:/usr/include/c++/7/bits/stl_algobase.h ****       template<typename _BI1, typename _BI2>
 514:/usr/include/c++/7/bits/stl_algobase.h ****         static _BI2
 515:/usr/include/c++/7/bits/stl_algobase.h ****         __copy_move_b(_BI1 __first, _BI1 __last, _BI2 __result)
 516:/usr/include/c++/7/bits/stl_algobase.h ****         {
 517:/usr/include/c++/7/bits/stl_algobase.h **** 	  while (__first != __last)
GAS LISTING /tmp/ccTfuPTI.s 			page 44


 518:/usr/include/c++/7/bits/stl_algobase.h **** 	    *--__result = std::move(*--__last);
 519:/usr/include/c++/7/bits/stl_algobase.h **** 	  return __result;
 520:/usr/include/c++/7/bits/stl_algobase.h **** 	}
 521:/usr/include/c++/7/bits/stl_algobase.h ****     };
 522:/usr/include/c++/7/bits/stl_algobase.h **** #endif
 523:/usr/include/c++/7/bits/stl_algobase.h **** 
 524:/usr/include/c++/7/bits/stl_algobase.h ****   template<>
 525:/usr/include/c++/7/bits/stl_algobase.h ****     struct __copy_move_backward<false, false, random_access_iterator_tag>
 526:/usr/include/c++/7/bits/stl_algobase.h ****     {
 527:/usr/include/c++/7/bits/stl_algobase.h ****       template<typename _BI1, typename _BI2>
 528:/usr/include/c++/7/bits/stl_algobase.h ****         static _BI2
 529:/usr/include/c++/7/bits/stl_algobase.h ****         __copy_move_b(_BI1 __first, _BI1 __last, _BI2 __result)
 530:/usr/include/c++/7/bits/stl_algobase.h ****         {
 531:/usr/include/c++/7/bits/stl_algobase.h **** 	  typename iterator_traits<_BI1>::difference_type __n;
 532:/usr/include/c++/7/bits/stl_algobase.h **** 	  for (__n = __last - __first; __n > 0; --__n)
 533:/usr/include/c++/7/bits/stl_algobase.h **** 	    *--__result = *--__last;
 534:/usr/include/c++/7/bits/stl_algobase.h **** 	  return __result;
 535:/usr/include/c++/7/bits/stl_algobase.h **** 	}
 536:/usr/include/c++/7/bits/stl_algobase.h ****     };
 537:/usr/include/c++/7/bits/stl_algobase.h **** 
 538:/usr/include/c++/7/bits/stl_algobase.h **** #if __cplusplus >= 201103L
 539:/usr/include/c++/7/bits/stl_algobase.h ****   template<>
 540:/usr/include/c++/7/bits/stl_algobase.h ****     struct __copy_move_backward<true, false, random_access_iterator_tag>
 541:/usr/include/c++/7/bits/stl_algobase.h ****     {
 542:/usr/include/c++/7/bits/stl_algobase.h ****       template<typename _BI1, typename _BI2>
 543:/usr/include/c++/7/bits/stl_algobase.h ****         static _BI2
 544:/usr/include/c++/7/bits/stl_algobase.h ****         __copy_move_b(_BI1 __first, _BI1 __last, _BI2 __result)
 545:/usr/include/c++/7/bits/stl_algobase.h ****         {
 546:/usr/include/c++/7/bits/stl_algobase.h **** 	  typename iterator_traits<_BI1>::difference_type __n;
 547:/usr/include/c++/7/bits/stl_algobase.h **** 	  for (__n = __last - __first; __n > 0; --__n)
 548:/usr/include/c++/7/bits/stl_algobase.h **** 	    *--__result = std::move(*--__last);
 549:/usr/include/c++/7/bits/stl_algobase.h **** 	  return __result;
 550:/usr/include/c++/7/bits/stl_algobase.h **** 	}
 551:/usr/include/c++/7/bits/stl_algobase.h ****     };
 552:/usr/include/c++/7/bits/stl_algobase.h **** #endif
 553:/usr/include/c++/7/bits/stl_algobase.h **** 
 554:/usr/include/c++/7/bits/stl_algobase.h ****   template<bool _IsMove>
 555:/usr/include/c++/7/bits/stl_algobase.h ****     struct __copy_move_backward<_IsMove, true, random_access_iterator_tag>
 556:/usr/include/c++/7/bits/stl_algobase.h ****     {
 557:/usr/include/c++/7/bits/stl_algobase.h ****       template<typename _Tp>
 558:/usr/include/c++/7/bits/stl_algobase.h ****         static _Tp*
 559:/usr/include/c++/7/bits/stl_algobase.h ****         __copy_move_b(const _Tp* __first, const _Tp* __last, _Tp* __result)
 560:/usr/include/c++/7/bits/stl_algobase.h ****         {
 561:/usr/include/c++/7/bits/stl_algobase.h **** #if __cplusplus >= 201103L
 562:/usr/include/c++/7/bits/stl_algobase.h **** 	  using __assignable = conditional<_IsMove,
 563:/usr/include/c++/7/bits/stl_algobase.h **** 					   is_move_assignable<_Tp>,
 564:/usr/include/c++/7/bits/stl_algobase.h **** 					   is_copy_assignable<_Tp>>;
 565:/usr/include/c++/7/bits/stl_algobase.h **** 	  // trivial types can have deleted assignment
 566:/usr/include/c++/7/bits/stl_algobase.h **** 	  static_assert( __assignable::type::value, "type is not assignable" );
 567:/usr/include/c++/7/bits/stl_algobase.h **** #endif
 568:/usr/include/c++/7/bits/stl_algobase.h **** 	  const ptrdiff_t _Num = __last - __first;
 569:/usr/include/c++/7/bits/stl_algobase.h **** 	  if (_Num)
 570:/usr/include/c++/7/bits/stl_algobase.h **** 	    __builtin_memmove(__result - _Num, __first, sizeof(_Tp) * _Num);
 571:/usr/include/c++/7/bits/stl_algobase.h **** 	  return __result - _Num;
 572:/usr/include/c++/7/bits/stl_algobase.h **** 	}
 573:/usr/include/c++/7/bits/stl_algobase.h ****     };
 574:/usr/include/c++/7/bits/stl_algobase.h **** 
GAS LISTING /tmp/ccTfuPTI.s 			page 45


 575:/usr/include/c++/7/bits/stl_algobase.h ****   template<bool _IsMove, typename _BI1, typename _BI2>
 576:/usr/include/c++/7/bits/stl_algobase.h ****     inline _BI2
 577:/usr/include/c++/7/bits/stl_algobase.h ****     __copy_move_backward_a(_BI1 __first, _BI1 __last, _BI2 __result)
 578:/usr/include/c++/7/bits/stl_algobase.h ****     {
 579:/usr/include/c++/7/bits/stl_algobase.h ****       typedef typename iterator_traits<_BI1>::value_type _ValueType1;
 580:/usr/include/c++/7/bits/stl_algobase.h ****       typedef typename iterator_traits<_BI2>::value_type _ValueType2;
 581:/usr/include/c++/7/bits/stl_algobase.h ****       typedef typename iterator_traits<_BI1>::iterator_category _Category;
 582:/usr/include/c++/7/bits/stl_algobase.h ****       const bool __simple = (__is_trivial(_ValueType1)
 583:/usr/include/c++/7/bits/stl_algobase.h **** 	                     && __is_pointer<_BI1>::__value
 584:/usr/include/c++/7/bits/stl_algobase.h **** 	                     && __is_pointer<_BI2>::__value
 585:/usr/include/c++/7/bits/stl_algobase.h **** 			     && __are_same<_ValueType1, _ValueType2>::__value);
 586:/usr/include/c++/7/bits/stl_algobase.h **** 
 587:/usr/include/c++/7/bits/stl_algobase.h ****       return std::__copy_move_backward<_IsMove, __simple,
 588:/usr/include/c++/7/bits/stl_algobase.h **** 	                               _Category>::__copy_move_b(__first,
 589:/usr/include/c++/7/bits/stl_algobase.h **** 								 __last,
 590:/usr/include/c++/7/bits/stl_algobase.h **** 								 __result);
 591:/usr/include/c++/7/bits/stl_algobase.h ****     }
 592:/usr/include/c++/7/bits/stl_algobase.h **** 
 593:/usr/include/c++/7/bits/stl_algobase.h ****   template<bool _IsMove, typename _BI1, typename _BI2>
 594:/usr/include/c++/7/bits/stl_algobase.h ****     inline _BI2
 595:/usr/include/c++/7/bits/stl_algobase.h ****     __copy_move_backward_a2(_BI1 __first, _BI1 __last, _BI2 __result)
 596:/usr/include/c++/7/bits/stl_algobase.h ****     {
 597:/usr/include/c++/7/bits/stl_algobase.h ****       return _BI2(std::__copy_move_backward_a<_IsMove>
 598:/usr/include/c++/7/bits/stl_algobase.h **** 		  (std::__niter_base(__first), std::__niter_base(__last),
 599:/usr/include/c++/7/bits/stl_algobase.h **** 		   std::__niter_base(__result)));
 600:/usr/include/c++/7/bits/stl_algobase.h ****     }
 601:/usr/include/c++/7/bits/stl_algobase.h **** 
 602:/usr/include/c++/7/bits/stl_algobase.h ****   /**
 603:/usr/include/c++/7/bits/stl_algobase.h ****    *  @brief Copies the range [first,last) into result.
 604:/usr/include/c++/7/bits/stl_algobase.h ****    *  @ingroup mutating_algorithms
 605:/usr/include/c++/7/bits/stl_algobase.h ****    *  @param  __first  A bidirectional iterator.
 606:/usr/include/c++/7/bits/stl_algobase.h ****    *  @param  __last   A bidirectional iterator.
 607:/usr/include/c++/7/bits/stl_algobase.h ****    *  @param  __result A bidirectional iterator.
 608:/usr/include/c++/7/bits/stl_algobase.h ****    *  @return   result - (first - last)
 609:/usr/include/c++/7/bits/stl_algobase.h ****    *
 610:/usr/include/c++/7/bits/stl_algobase.h ****    *  The function has the same effect as copy, but starts at the end of the
 611:/usr/include/c++/7/bits/stl_algobase.h ****    *  range and works its way to the start, returning the start of the result.
 612:/usr/include/c++/7/bits/stl_algobase.h ****    *  This inline function will boil down to a call to @c memmove whenever
 613:/usr/include/c++/7/bits/stl_algobase.h ****    *  possible.  Failing that, if random access iterators are passed, then the
 614:/usr/include/c++/7/bits/stl_algobase.h ****    *  loop count will be known (and therefore a candidate for compiler
 615:/usr/include/c++/7/bits/stl_algobase.h ****    *  optimizations such as unrolling).
 616:/usr/include/c++/7/bits/stl_algobase.h ****    *
 617:/usr/include/c++/7/bits/stl_algobase.h ****    *  Result may not be in the range (first,last].  Use copy instead.  Note
 618:/usr/include/c++/7/bits/stl_algobase.h ****    *  that the start of the output range may overlap [first,last).
 619:/usr/include/c++/7/bits/stl_algobase.h ****   */
 620:/usr/include/c++/7/bits/stl_algobase.h ****   template<typename _BI1, typename _BI2>
 621:/usr/include/c++/7/bits/stl_algobase.h ****     inline _BI2
 622:/usr/include/c++/7/bits/stl_algobase.h ****     copy_backward(_BI1 __first, _BI1 __last, _BI2 __result)
 623:/usr/include/c++/7/bits/stl_algobase.h ****     {
 624:/usr/include/c++/7/bits/stl_algobase.h ****       // concept requirements
 625:/usr/include/c++/7/bits/stl_algobase.h ****       __glibcxx_function_requires(_BidirectionalIteratorConcept<_BI1>)
 626:/usr/include/c++/7/bits/stl_algobase.h ****       __glibcxx_function_requires(_Mutable_BidirectionalIteratorConcept<_BI2>)
 627:/usr/include/c++/7/bits/stl_algobase.h ****       __glibcxx_function_requires(_ConvertibleConcept<
 628:/usr/include/c++/7/bits/stl_algobase.h **** 	    typename iterator_traits<_BI1>::value_type,
 629:/usr/include/c++/7/bits/stl_algobase.h **** 	    typename iterator_traits<_BI2>::value_type>)
 630:/usr/include/c++/7/bits/stl_algobase.h ****       __glibcxx_requires_valid_range(__first, __last);
 631:/usr/include/c++/7/bits/stl_algobase.h **** 
GAS LISTING /tmp/ccTfuPTI.s 			page 46


 632:/usr/include/c++/7/bits/stl_algobase.h ****       return (std::__copy_move_backward_a2<__is_move_iterator<_BI1>::__value>
 633:/usr/include/c++/7/bits/stl_algobase.h **** 	      (std::__miter_base(__first), std::__miter_base(__last),
 634:/usr/include/c++/7/bits/stl_algobase.h **** 	       __result));
 635:/usr/include/c++/7/bits/stl_algobase.h ****     }
 636:/usr/include/c++/7/bits/stl_algobase.h **** 
 637:/usr/include/c++/7/bits/stl_algobase.h **** #if __cplusplus >= 201103L
 638:/usr/include/c++/7/bits/stl_algobase.h ****   /**
 639:/usr/include/c++/7/bits/stl_algobase.h ****    *  @brief Moves the range [first,last) into result.
 640:/usr/include/c++/7/bits/stl_algobase.h ****    *  @ingroup mutating_algorithms
 641:/usr/include/c++/7/bits/stl_algobase.h ****    *  @param  __first  A bidirectional iterator.
 642:/usr/include/c++/7/bits/stl_algobase.h ****    *  @param  __last   A bidirectional iterator.
 643:/usr/include/c++/7/bits/stl_algobase.h ****    *  @param  __result A bidirectional iterator.
 644:/usr/include/c++/7/bits/stl_algobase.h ****    *  @return   result - (first - last)
 645:/usr/include/c++/7/bits/stl_algobase.h ****    *
 646:/usr/include/c++/7/bits/stl_algobase.h ****    *  The function has the same effect as move, but starts at the end of the
 647:/usr/include/c++/7/bits/stl_algobase.h ****    *  range and works its way to the start, returning the start of the result.
 648:/usr/include/c++/7/bits/stl_algobase.h ****    *  This inline function will boil down to a call to @c memmove whenever
 649:/usr/include/c++/7/bits/stl_algobase.h ****    *  possible.  Failing that, if random access iterators are passed, then the
 650:/usr/include/c++/7/bits/stl_algobase.h ****    *  loop count will be known (and therefore a candidate for compiler
 651:/usr/include/c++/7/bits/stl_algobase.h ****    *  optimizations such as unrolling).
 652:/usr/include/c++/7/bits/stl_algobase.h ****    *
 653:/usr/include/c++/7/bits/stl_algobase.h ****    *  Result may not be in the range (first,last].  Use move instead.  Note
 654:/usr/include/c++/7/bits/stl_algobase.h ****    *  that the start of the output range may overlap [first,last).
 655:/usr/include/c++/7/bits/stl_algobase.h ****   */
 656:/usr/include/c++/7/bits/stl_algobase.h ****   template<typename _BI1, typename _BI2>
 657:/usr/include/c++/7/bits/stl_algobase.h ****     inline _BI2
 658:/usr/include/c++/7/bits/stl_algobase.h ****     move_backward(_BI1 __first, _BI1 __last, _BI2 __result)
 659:/usr/include/c++/7/bits/stl_algobase.h ****     {
 660:/usr/include/c++/7/bits/stl_algobase.h ****       // concept requirements
 661:/usr/include/c++/7/bits/stl_algobase.h ****       __glibcxx_function_requires(_BidirectionalIteratorConcept<_BI1>)
 662:/usr/include/c++/7/bits/stl_algobase.h ****       __glibcxx_function_requires(_Mutable_BidirectionalIteratorConcept<_BI2>)
 663:/usr/include/c++/7/bits/stl_algobase.h ****       __glibcxx_function_requires(_ConvertibleConcept<
 664:/usr/include/c++/7/bits/stl_algobase.h **** 	    typename iterator_traits<_BI1>::value_type,
 665:/usr/include/c++/7/bits/stl_algobase.h **** 	    typename iterator_traits<_BI2>::value_type>)
 666:/usr/include/c++/7/bits/stl_algobase.h ****       __glibcxx_requires_valid_range(__first, __last);
 667:/usr/include/c++/7/bits/stl_algobase.h **** 
 668:/usr/include/c++/7/bits/stl_algobase.h ****       return std::__copy_move_backward_a2<true>(std::__miter_base(__first),
 669:/usr/include/c++/7/bits/stl_algobase.h **** 						std::__miter_base(__last),
 670:/usr/include/c++/7/bits/stl_algobase.h **** 						__result);
 671:/usr/include/c++/7/bits/stl_algobase.h ****     }
 672:/usr/include/c++/7/bits/stl_algobase.h **** 
 673:/usr/include/c++/7/bits/stl_algobase.h **** #define _GLIBCXX_MOVE_BACKWARD3(_Tp, _Up, _Vp) std::move_backward(_Tp, _Up, _Vp)
 674:/usr/include/c++/7/bits/stl_algobase.h **** #else
 675:/usr/include/c++/7/bits/stl_algobase.h **** #define _GLIBCXX_MOVE_BACKWARD3(_Tp, _Up, _Vp) std::copy_backward(_Tp, _Up, _Vp)
 676:/usr/include/c++/7/bits/stl_algobase.h **** #endif
 677:/usr/include/c++/7/bits/stl_algobase.h **** 
 678:/usr/include/c++/7/bits/stl_algobase.h ****   template<typename _ForwardIterator, typename _Tp>
 679:/usr/include/c++/7/bits/stl_algobase.h ****     inline typename
 680:/usr/include/c++/7/bits/stl_algobase.h ****     __gnu_cxx::__enable_if<!__is_scalar<_Tp>::__value, void>::__type
 681:/usr/include/c++/7/bits/stl_algobase.h ****     __fill_a(_ForwardIterator __first, _ForwardIterator __last,
 682:/usr/include/c++/7/bits/stl_algobase.h ****  	     const _Tp& __value)
 683:/usr/include/c++/7/bits/stl_algobase.h ****     {
 684:/usr/include/c++/7/bits/stl_algobase.h ****       for (; __first != __last; ++__first)
 685:/usr/include/c++/7/bits/stl_algobase.h **** 	*__first = __value;
 686:/usr/include/c++/7/bits/stl_algobase.h ****     }
 687:/usr/include/c++/7/bits/stl_algobase.h ****     
 688:/usr/include/c++/7/bits/stl_algobase.h ****   template<typename _ForwardIterator, typename _Tp>
GAS LISTING /tmp/ccTfuPTI.s 			page 47


 689:/usr/include/c++/7/bits/stl_algobase.h ****     inline typename
 690:/usr/include/c++/7/bits/stl_algobase.h ****     __gnu_cxx::__enable_if<__is_scalar<_Tp>::__value, void>::__type
 691:/usr/include/c++/7/bits/stl_algobase.h ****     __fill_a(_ForwardIterator __first, _ForwardIterator __last,
 692:/usr/include/c++/7/bits/stl_algobase.h **** 	     const _Tp& __value)
 693:/usr/include/c++/7/bits/stl_algobase.h ****     {
 694:/usr/include/c++/7/bits/stl_algobase.h ****       const _Tp __tmp = __value;
 695:/usr/include/c++/7/bits/stl_algobase.h ****       for (; __first != __last; ++__first)
 696:/usr/include/c++/7/bits/stl_algobase.h **** 	*__first = __tmp;
 697:/usr/include/c++/7/bits/stl_algobase.h ****     }
 698:/usr/include/c++/7/bits/stl_algobase.h **** 
 699:/usr/include/c++/7/bits/stl_algobase.h ****   // Specialization: for char types we can use memset.
 700:/usr/include/c++/7/bits/stl_algobase.h ****   template<typename _Tp>
 701:/usr/include/c++/7/bits/stl_algobase.h ****     inline typename
 702:/usr/include/c++/7/bits/stl_algobase.h ****     __gnu_cxx::__enable_if<__is_byte<_Tp>::__value, void>::__type
 703:/usr/include/c++/7/bits/stl_algobase.h ****     __fill_a(_Tp* __first, _Tp* __last, const _Tp& __c)
 704:/usr/include/c++/7/bits/stl_algobase.h ****     {
 705:/usr/include/c++/7/bits/stl_algobase.h ****       const _Tp __tmp = __c;
 706:/usr/include/c++/7/bits/stl_algobase.h ****       if (const size_t __len = __last - __first)
 707:/usr/include/c++/7/bits/stl_algobase.h **** 	__builtin_memset(__first, static_cast<unsigned char>(__tmp), __len);
 708:/usr/include/c++/7/bits/stl_algobase.h ****     }
 709:/usr/include/c++/7/bits/stl_algobase.h **** 
 710:/usr/include/c++/7/bits/stl_algobase.h ****   /**
 711:/usr/include/c++/7/bits/stl_algobase.h ****    *  @brief Fills the range [first,last) with copies of value.
 712:/usr/include/c++/7/bits/stl_algobase.h ****    *  @ingroup mutating_algorithms
 713:/usr/include/c++/7/bits/stl_algobase.h ****    *  @param  __first  A forward iterator.
 714:/usr/include/c++/7/bits/stl_algobase.h ****    *  @param  __last   A forward iterator.
 715:/usr/include/c++/7/bits/stl_algobase.h ****    *  @param  __value  A reference-to-const of arbitrary type.
 716:/usr/include/c++/7/bits/stl_algobase.h ****    *  @return   Nothing.
 717:/usr/include/c++/7/bits/stl_algobase.h ****    *
 718:/usr/include/c++/7/bits/stl_algobase.h ****    *  This function fills a range with copies of the same value.  For char
 719:/usr/include/c++/7/bits/stl_algobase.h ****    *  types filling contiguous areas of memory, this becomes an inline call
 720:/usr/include/c++/7/bits/stl_algobase.h ****    *  to @c memset or @c wmemset.
 721:/usr/include/c++/7/bits/stl_algobase.h ****   */
 722:/usr/include/c++/7/bits/stl_algobase.h ****   template<typename _ForwardIterator, typename _Tp>
 723:/usr/include/c++/7/bits/stl_algobase.h ****     inline void
 724:/usr/include/c++/7/bits/stl_algobase.h ****     fill(_ForwardIterator __first, _ForwardIterator __last, const _Tp& __value)
 725:/usr/include/c++/7/bits/stl_algobase.h ****     {
 726:/usr/include/c++/7/bits/stl_algobase.h ****       // concept requirements
 727:/usr/include/c++/7/bits/stl_algobase.h ****       __glibcxx_function_requires(_Mutable_ForwardIteratorConcept<
 728:/usr/include/c++/7/bits/stl_algobase.h **** 				  _ForwardIterator>)
 729:/usr/include/c++/7/bits/stl_algobase.h ****       __glibcxx_requires_valid_range(__first, __last);
 730:/usr/include/c++/7/bits/stl_algobase.h **** 
 731:/usr/include/c++/7/bits/stl_algobase.h ****       std::__fill_a(std::__niter_base(__first), std::__niter_base(__last),
 732:/usr/include/c++/7/bits/stl_algobase.h **** 		    __value);
 733:/usr/include/c++/7/bits/stl_algobase.h ****     }
 734:/usr/include/c++/7/bits/stl_algobase.h **** 
 735:/usr/include/c++/7/bits/stl_algobase.h ****   template<typename _OutputIterator, typename _Size, typename _Tp>
 736:/usr/include/c++/7/bits/stl_algobase.h ****     inline typename
 737:/usr/include/c++/7/bits/stl_algobase.h ****     __gnu_cxx::__enable_if<!__is_scalar<_Tp>::__value, _OutputIterator>::__type
 738:/usr/include/c++/7/bits/stl_algobase.h ****     __fill_n_a(_OutputIterator __first, _Size __n, const _Tp& __value)
 739:/usr/include/c++/7/bits/stl_algobase.h ****     {
 740:/usr/include/c++/7/bits/stl_algobase.h ****       for (__decltype(__n + 0) __niter = __n;
 741:/usr/include/c++/7/bits/stl_algobase.h **** 	   __niter > 0; --__niter, ++__first)
 742:/usr/include/c++/7/bits/stl_algobase.h **** 	*__first = __value;
 743:/usr/include/c++/7/bits/stl_algobase.h ****       return __first;
 744:/usr/include/c++/7/bits/stl_algobase.h ****     }
 745:/usr/include/c++/7/bits/stl_algobase.h **** 
GAS LISTING /tmp/ccTfuPTI.s 			page 48


 746:/usr/include/c++/7/bits/stl_algobase.h ****   template<typename _OutputIterator, typename _Size, typename _Tp>
 747:/usr/include/c++/7/bits/stl_algobase.h ****     inline typename
 748:/usr/include/c++/7/bits/stl_algobase.h ****     __gnu_cxx::__enable_if<__is_scalar<_Tp>::__value, _OutputIterator>::__type
 749:/usr/include/c++/7/bits/stl_algobase.h ****     __fill_n_a(_OutputIterator __first, _Size __n, const _Tp& __value)
 750:/usr/include/c++/7/bits/stl_algobase.h ****     {
 751:/usr/include/c++/7/bits/stl_algobase.h ****       const _Tp __tmp = __value;
 752:/usr/include/c++/7/bits/stl_algobase.h ****       for (__decltype(__n + 0) __niter = __n;
 321              		.loc 6 752 0
 322 001d 4889F2   		movq	%rsi, %rdx
 323              	.LBE1691:
 324              	.LBE1690:
 325              	.LBE1689:
 326              	.LBE1688:
 327              	.LBE1687:
 328              	.LBE1686:
 329              	.LBE1685:
 330              	.LBE1684:
 331              	.LBE1683:
 332 0020 4889C8   		movq	%rcx, %rax
 333              	.L27:
 334              	.LVL27:
 335              	.LBB1700:
 336              	.LBB1699:
 337              	.LBB1698:
 338              	.LBB1697:
 339              	.LBB1696:
 340              	.LBB1695:
 341              	.LBB1694:
 342              	.LBB1693:
 343              	.LBB1692:
 753:/usr/include/c++/7/bits/stl_algobase.h **** 	   __niter > 0; --__niter, ++__first)
 754:/usr/include/c++/7/bits/stl_algobase.h **** 	*__first = __tmp;
 344              		.loc 6 754 0
 345 0023 48C70000 		movq	$0, (%rax)
 345      000000
 346              	.LVL28:
 752:/usr/include/c++/7/bits/stl_algobase.h **** 	   __niter > 0; --__niter, ++__first)
 347              		.loc 6 752 0
 348 002a 4883C008 		addq	$8, %rax
 349              	.LVL29:
 753:/usr/include/c++/7/bits/stl_algobase.h **** 	   __niter > 0; --__niter, ++__first)
 350              		.loc 6 753 0
 351 002e 4883EA01 		subq	$1, %rdx
 352              	.LVL30:
 353 0032 75EF     		jne	.L27
 354              	.LVL31:
 355              	.LBE1692:
 356              	.LBE1693:
 357              	.LBE1694:
 358              	.LBE1695:
 359              	.LBE1696:
 360              	.LBE1697:
 361              	.LBE1698:
 362              	.LBE1699:
 363              	.LBE1700:
 561:/usr/include/c++/7/bits/vector.tcc **** 	    {
 562:/usr/include/c++/7/bits/vector.tcc **** 	      this->_M_impl._M_finish =
GAS LISTING /tmp/ccTfuPTI.s 			page 49


 364              		.loc 5 562 0
 365 0034 488D04F1 		leaq	(%rcx,%rsi,8), %rax
 366 0038 48894708 		movq	%rax, 8(%rdi)
 367 003c C3       		ret
 368              	.L26:
 369              	.LBE1682:
 370              	.LBE1681:
 554:/usr/include/c++/7/bits/vector.tcc ****     _M_default_append(size_type __n)
 371              		.loc 5 554 0
 372 003d 4157     		pushq	%r15
 373              		.cfi_def_cfa_offset 16
 374              		.cfi_offset 15, -16
 375 003f 4156     		pushq	%r14
 376              		.cfi_def_cfa_offset 24
 377              		.cfi_offset 14, -24
 378 0041 4155     		pushq	%r13
 379              		.cfi_def_cfa_offset 32
 380              		.cfi_offset 13, -32
 381 0043 4154     		pushq	%r12
 382              		.cfi_def_cfa_offset 40
 383              		.cfi_offset 12, -40
 384 0045 55       		pushq	%rbp
 385              		.cfi_def_cfa_offset 48
 386              		.cfi_offset 6, -48
 387 0046 53       		pushq	%rbx
 388              		.cfi_def_cfa_offset 56
 389              		.cfi_offset 3, -56
 390 0047 4883EC08 		subq	$8, %rsp
 391              		.cfi_def_cfa_offset 64
 392 004b 4889F5   		movq	%rsi, %rbp
 393 004e 4889FB   		movq	%rdi, %rbx
 394              	.LVL32:
 395              	.LBB1750:
 396              	.LBB1748:
 397              	.LBB1701:
 398              	.LBB1702:
 399              	.LBB1703:
 400              	.LBB1704:
 401              	.LBB1705:
 436:/usr/include/c++/7/bits/stl_vector.h **** 
 437:/usr/include/c++/7/bits/stl_vector.h ****       /**
 438:/usr/include/c++/7/bits/stl_vector.h ****        *  @brief  %Vector assignment operator.
 439:/usr/include/c++/7/bits/stl_vector.h ****        *  @param  __x  A %vector of identical element and allocator types.
 440:/usr/include/c++/7/bits/stl_vector.h ****        *
 441:/usr/include/c++/7/bits/stl_vector.h ****        *  All the elements of @a __x are copied, but any unused capacity in
 442:/usr/include/c++/7/bits/stl_vector.h ****        *  @a __x will not be copied.
 443:/usr/include/c++/7/bits/stl_vector.h ****        *
 444:/usr/include/c++/7/bits/stl_vector.h ****        *  Whether the allocator is copied depends on the allocator traits.
 445:/usr/include/c++/7/bits/stl_vector.h ****        */
 446:/usr/include/c++/7/bits/stl_vector.h ****       vector&
 447:/usr/include/c++/7/bits/stl_vector.h ****       operator=(const vector& __x);
 448:/usr/include/c++/7/bits/stl_vector.h **** 
 449:/usr/include/c++/7/bits/stl_vector.h **** #if __cplusplus >= 201103L
 450:/usr/include/c++/7/bits/stl_vector.h ****       /**
 451:/usr/include/c++/7/bits/stl_vector.h ****        *  @brief  %Vector move assignment operator.
 452:/usr/include/c++/7/bits/stl_vector.h ****        *  @param  __x  A %vector of identical element and allocator types.
 453:/usr/include/c++/7/bits/stl_vector.h ****        *
GAS LISTING /tmp/ccTfuPTI.s 			page 50


 454:/usr/include/c++/7/bits/stl_vector.h ****        *  The contents of @a __x are moved into this %vector (without copying,
 455:/usr/include/c++/7/bits/stl_vector.h ****        *  if the allocators permit it).
 456:/usr/include/c++/7/bits/stl_vector.h ****        *  Afterwards @a __x is a valid, but unspecified %vector.
 457:/usr/include/c++/7/bits/stl_vector.h ****        *
 458:/usr/include/c++/7/bits/stl_vector.h ****        *  Whether the allocator is moved depends on the allocator traits.
 459:/usr/include/c++/7/bits/stl_vector.h ****        */
 460:/usr/include/c++/7/bits/stl_vector.h ****       vector&
 461:/usr/include/c++/7/bits/stl_vector.h ****       operator=(vector&& __x) noexcept(_Alloc_traits::_S_nothrow_move())
 462:/usr/include/c++/7/bits/stl_vector.h ****       {
 463:/usr/include/c++/7/bits/stl_vector.h **** 	constexpr bool __move_storage =
 464:/usr/include/c++/7/bits/stl_vector.h **** 	  _Alloc_traits::_S_propagate_on_move_assign()
 465:/usr/include/c++/7/bits/stl_vector.h **** 	  || _Alloc_traits::_S_always_equal();
 466:/usr/include/c++/7/bits/stl_vector.h **** 	_M_move_assign(std::move(__x), __bool_constant<__move_storage>());
 467:/usr/include/c++/7/bits/stl_vector.h **** 	return *this;
 468:/usr/include/c++/7/bits/stl_vector.h ****       }
 469:/usr/include/c++/7/bits/stl_vector.h **** 
 470:/usr/include/c++/7/bits/stl_vector.h ****       /**
 471:/usr/include/c++/7/bits/stl_vector.h ****        *  @brief  %Vector list assignment operator.
 472:/usr/include/c++/7/bits/stl_vector.h ****        *  @param  __l  An initializer_list.
 473:/usr/include/c++/7/bits/stl_vector.h ****        *
 474:/usr/include/c++/7/bits/stl_vector.h ****        *  This function fills a %vector with copies of the elements in the
 475:/usr/include/c++/7/bits/stl_vector.h ****        *  initializer list @a __l.
 476:/usr/include/c++/7/bits/stl_vector.h ****        *
 477:/usr/include/c++/7/bits/stl_vector.h ****        *  Note that the assignment completely changes the %vector and
 478:/usr/include/c++/7/bits/stl_vector.h ****        *  that the resulting %vector's size is the same as the number
 479:/usr/include/c++/7/bits/stl_vector.h ****        *  of elements assigned.
 480:/usr/include/c++/7/bits/stl_vector.h ****        */
 481:/usr/include/c++/7/bits/stl_vector.h ****       vector&
 482:/usr/include/c++/7/bits/stl_vector.h ****       operator=(initializer_list<value_type> __l)
 483:/usr/include/c++/7/bits/stl_vector.h ****       {
 484:/usr/include/c++/7/bits/stl_vector.h **** 	this->_M_assign_aux(__l.begin(), __l.end(),
 485:/usr/include/c++/7/bits/stl_vector.h **** 			    random_access_iterator_tag());
 486:/usr/include/c++/7/bits/stl_vector.h **** 	return *this;
 487:/usr/include/c++/7/bits/stl_vector.h ****       }
 488:/usr/include/c++/7/bits/stl_vector.h **** #endif
 489:/usr/include/c++/7/bits/stl_vector.h **** 
 490:/usr/include/c++/7/bits/stl_vector.h ****       /**
 491:/usr/include/c++/7/bits/stl_vector.h ****        *  @brief  Assigns a given value to a %vector.
 492:/usr/include/c++/7/bits/stl_vector.h ****        *  @param  __n  Number of elements to be assigned.
 493:/usr/include/c++/7/bits/stl_vector.h ****        *  @param  __val  Value to be assigned.
 494:/usr/include/c++/7/bits/stl_vector.h ****        *
 495:/usr/include/c++/7/bits/stl_vector.h ****        *  This function fills a %vector with @a __n copies of the given
 496:/usr/include/c++/7/bits/stl_vector.h ****        *  value.  Note that the assignment completely changes the
 497:/usr/include/c++/7/bits/stl_vector.h ****        *  %vector and that the resulting %vector's size is the same as
 498:/usr/include/c++/7/bits/stl_vector.h ****        *  the number of elements assigned.
 499:/usr/include/c++/7/bits/stl_vector.h ****        */
 500:/usr/include/c++/7/bits/stl_vector.h ****       void
 501:/usr/include/c++/7/bits/stl_vector.h ****       assign(size_type __n, const value_type& __val)
 502:/usr/include/c++/7/bits/stl_vector.h ****       { _M_fill_assign(__n, __val); }
 503:/usr/include/c++/7/bits/stl_vector.h **** 
 504:/usr/include/c++/7/bits/stl_vector.h ****       /**
 505:/usr/include/c++/7/bits/stl_vector.h ****        *  @brief  Assigns a range to a %vector.
 506:/usr/include/c++/7/bits/stl_vector.h ****        *  @param  __first  An input iterator.
 507:/usr/include/c++/7/bits/stl_vector.h ****        *  @param  __last   An input iterator.
 508:/usr/include/c++/7/bits/stl_vector.h ****        *
 509:/usr/include/c++/7/bits/stl_vector.h ****        *  This function fills a %vector with copies of the elements in the
 510:/usr/include/c++/7/bits/stl_vector.h ****        *  range [__first,__last).
GAS LISTING /tmp/ccTfuPTI.s 			page 51


 511:/usr/include/c++/7/bits/stl_vector.h ****        *
 512:/usr/include/c++/7/bits/stl_vector.h ****        *  Note that the assignment completely changes the %vector and
 513:/usr/include/c++/7/bits/stl_vector.h ****        *  that the resulting %vector's size is the same as the number
 514:/usr/include/c++/7/bits/stl_vector.h ****        *  of elements assigned.
 515:/usr/include/c++/7/bits/stl_vector.h ****        */
 516:/usr/include/c++/7/bits/stl_vector.h **** #if __cplusplus >= 201103L
 517:/usr/include/c++/7/bits/stl_vector.h ****       template<typename _InputIterator,
 518:/usr/include/c++/7/bits/stl_vector.h **** 	       typename = std::_RequireInputIter<_InputIterator>>
 519:/usr/include/c++/7/bits/stl_vector.h **** 	void
 520:/usr/include/c++/7/bits/stl_vector.h **** 	assign(_InputIterator __first, _InputIterator __last)
 521:/usr/include/c++/7/bits/stl_vector.h **** 	{ _M_assign_dispatch(__first, __last, __false_type()); }
 522:/usr/include/c++/7/bits/stl_vector.h **** #else
 523:/usr/include/c++/7/bits/stl_vector.h ****       template<typename _InputIterator>
 524:/usr/include/c++/7/bits/stl_vector.h **** 	void
 525:/usr/include/c++/7/bits/stl_vector.h **** 	assign(_InputIterator __first, _InputIterator __last)
 526:/usr/include/c++/7/bits/stl_vector.h **** 	{
 527:/usr/include/c++/7/bits/stl_vector.h **** 	  // Check whether it's an integral type.  If so, it's not an iterator.
 528:/usr/include/c++/7/bits/stl_vector.h **** 	  typedef typename std::__is_integer<_InputIterator>::__type _Integral;
 529:/usr/include/c++/7/bits/stl_vector.h **** 	  _M_assign_dispatch(__first, __last, _Integral());
 530:/usr/include/c++/7/bits/stl_vector.h **** 	}
 531:/usr/include/c++/7/bits/stl_vector.h **** #endif
 532:/usr/include/c++/7/bits/stl_vector.h **** 
 533:/usr/include/c++/7/bits/stl_vector.h **** #if __cplusplus >= 201103L
 534:/usr/include/c++/7/bits/stl_vector.h ****       /**
 535:/usr/include/c++/7/bits/stl_vector.h ****        *  @brief  Assigns an initializer list to a %vector.
 536:/usr/include/c++/7/bits/stl_vector.h ****        *  @param  __l  An initializer_list.
 537:/usr/include/c++/7/bits/stl_vector.h ****        *
 538:/usr/include/c++/7/bits/stl_vector.h ****        *  This function fills a %vector with copies of the elements in the
 539:/usr/include/c++/7/bits/stl_vector.h ****        *  initializer list @a __l.
 540:/usr/include/c++/7/bits/stl_vector.h ****        *
 541:/usr/include/c++/7/bits/stl_vector.h ****        *  Note that the assignment completely changes the %vector and
 542:/usr/include/c++/7/bits/stl_vector.h ****        *  that the resulting %vector's size is the same as the number
 543:/usr/include/c++/7/bits/stl_vector.h ****        *  of elements assigned.
 544:/usr/include/c++/7/bits/stl_vector.h ****        */
 545:/usr/include/c++/7/bits/stl_vector.h ****       void
 546:/usr/include/c++/7/bits/stl_vector.h ****       assign(initializer_list<value_type> __l)
 547:/usr/include/c++/7/bits/stl_vector.h ****       {
 548:/usr/include/c++/7/bits/stl_vector.h **** 	this->_M_assign_aux(__l.begin(), __l.end(),
 549:/usr/include/c++/7/bits/stl_vector.h **** 			    random_access_iterator_tag());
 550:/usr/include/c++/7/bits/stl_vector.h ****       }
 551:/usr/include/c++/7/bits/stl_vector.h **** #endif
 552:/usr/include/c++/7/bits/stl_vector.h **** 
 553:/usr/include/c++/7/bits/stl_vector.h ****       /// Get a copy of the memory allocation object.
 554:/usr/include/c++/7/bits/stl_vector.h ****       using _Base::get_allocator;
 555:/usr/include/c++/7/bits/stl_vector.h **** 
 556:/usr/include/c++/7/bits/stl_vector.h ****       // iterators
 557:/usr/include/c++/7/bits/stl_vector.h ****       /**
 558:/usr/include/c++/7/bits/stl_vector.h ****        *  Returns a read/write iterator that points to the first
 559:/usr/include/c++/7/bits/stl_vector.h ****        *  element in the %vector.  Iteration is done in ordinary
 560:/usr/include/c++/7/bits/stl_vector.h ****        *  element order.
 561:/usr/include/c++/7/bits/stl_vector.h ****        */
 562:/usr/include/c++/7/bits/stl_vector.h ****       iterator
 563:/usr/include/c++/7/bits/stl_vector.h ****       begin() _GLIBCXX_NOEXCEPT
 564:/usr/include/c++/7/bits/stl_vector.h ****       { return iterator(this->_M_impl._M_start); }
 565:/usr/include/c++/7/bits/stl_vector.h **** 
 566:/usr/include/c++/7/bits/stl_vector.h ****       /**
 567:/usr/include/c++/7/bits/stl_vector.h ****        *  Returns a read-only (constant) iterator that points to the
GAS LISTING /tmp/ccTfuPTI.s 			page 52


 568:/usr/include/c++/7/bits/stl_vector.h ****        *  first element in the %vector.  Iteration is done in ordinary
 569:/usr/include/c++/7/bits/stl_vector.h ****        *  element order.
 570:/usr/include/c++/7/bits/stl_vector.h ****        */
 571:/usr/include/c++/7/bits/stl_vector.h ****       const_iterator
 572:/usr/include/c++/7/bits/stl_vector.h ****       begin() const _GLIBCXX_NOEXCEPT
 573:/usr/include/c++/7/bits/stl_vector.h ****       { return const_iterator(this->_M_impl._M_start); }
 574:/usr/include/c++/7/bits/stl_vector.h **** 
 575:/usr/include/c++/7/bits/stl_vector.h ****       /**
 576:/usr/include/c++/7/bits/stl_vector.h ****        *  Returns a read/write iterator that points one past the last
 577:/usr/include/c++/7/bits/stl_vector.h ****        *  element in the %vector.  Iteration is done in ordinary
 578:/usr/include/c++/7/bits/stl_vector.h ****        *  element order.
 579:/usr/include/c++/7/bits/stl_vector.h ****        */
 580:/usr/include/c++/7/bits/stl_vector.h ****       iterator
 581:/usr/include/c++/7/bits/stl_vector.h ****       end() _GLIBCXX_NOEXCEPT
 582:/usr/include/c++/7/bits/stl_vector.h ****       { return iterator(this->_M_impl._M_finish); }
 583:/usr/include/c++/7/bits/stl_vector.h **** 
 584:/usr/include/c++/7/bits/stl_vector.h ****       /**
 585:/usr/include/c++/7/bits/stl_vector.h ****        *  Returns a read-only (constant) iterator that points one past
 586:/usr/include/c++/7/bits/stl_vector.h ****        *  the last element in the %vector.  Iteration is done in
 587:/usr/include/c++/7/bits/stl_vector.h ****        *  ordinary element order.
 588:/usr/include/c++/7/bits/stl_vector.h ****        */
 589:/usr/include/c++/7/bits/stl_vector.h ****       const_iterator
 590:/usr/include/c++/7/bits/stl_vector.h ****       end() const _GLIBCXX_NOEXCEPT
 591:/usr/include/c++/7/bits/stl_vector.h ****       { return const_iterator(this->_M_impl._M_finish); }
 592:/usr/include/c++/7/bits/stl_vector.h **** 
 593:/usr/include/c++/7/bits/stl_vector.h ****       /**
 594:/usr/include/c++/7/bits/stl_vector.h ****        *  Returns a read/write reverse iterator that points to the
 595:/usr/include/c++/7/bits/stl_vector.h ****        *  last element in the %vector.  Iteration is done in reverse
 596:/usr/include/c++/7/bits/stl_vector.h ****        *  element order.
 597:/usr/include/c++/7/bits/stl_vector.h ****        */
 598:/usr/include/c++/7/bits/stl_vector.h ****       reverse_iterator
 599:/usr/include/c++/7/bits/stl_vector.h ****       rbegin() _GLIBCXX_NOEXCEPT
 600:/usr/include/c++/7/bits/stl_vector.h ****       { return reverse_iterator(end()); }
 601:/usr/include/c++/7/bits/stl_vector.h **** 
 602:/usr/include/c++/7/bits/stl_vector.h ****       /**
 603:/usr/include/c++/7/bits/stl_vector.h ****        *  Returns a read-only (constant) reverse iterator that points
 604:/usr/include/c++/7/bits/stl_vector.h ****        *  to the last element in the %vector.  Iteration is done in
 605:/usr/include/c++/7/bits/stl_vector.h ****        *  reverse element order.
 606:/usr/include/c++/7/bits/stl_vector.h ****        */
 607:/usr/include/c++/7/bits/stl_vector.h ****       const_reverse_iterator
 608:/usr/include/c++/7/bits/stl_vector.h ****       rbegin() const _GLIBCXX_NOEXCEPT
 609:/usr/include/c++/7/bits/stl_vector.h ****       { return const_reverse_iterator(end()); }
 610:/usr/include/c++/7/bits/stl_vector.h **** 
 611:/usr/include/c++/7/bits/stl_vector.h ****       /**
 612:/usr/include/c++/7/bits/stl_vector.h ****        *  Returns a read/write reverse iterator that points to one
 613:/usr/include/c++/7/bits/stl_vector.h ****        *  before the first element in the %vector.  Iteration is done
 614:/usr/include/c++/7/bits/stl_vector.h ****        *  in reverse element order.
 615:/usr/include/c++/7/bits/stl_vector.h ****        */
 616:/usr/include/c++/7/bits/stl_vector.h ****       reverse_iterator
 617:/usr/include/c++/7/bits/stl_vector.h ****       rend() _GLIBCXX_NOEXCEPT
 618:/usr/include/c++/7/bits/stl_vector.h ****       { return reverse_iterator(begin()); }
 619:/usr/include/c++/7/bits/stl_vector.h **** 
 620:/usr/include/c++/7/bits/stl_vector.h ****       /**
 621:/usr/include/c++/7/bits/stl_vector.h ****        *  Returns a read-only (constant) reverse iterator that points
 622:/usr/include/c++/7/bits/stl_vector.h ****        *  to one before the first element in the %vector.  Iteration
 623:/usr/include/c++/7/bits/stl_vector.h ****        *  is done in reverse element order.
 624:/usr/include/c++/7/bits/stl_vector.h ****        */
GAS LISTING /tmp/ccTfuPTI.s 			page 53


 625:/usr/include/c++/7/bits/stl_vector.h ****       const_reverse_iterator
 626:/usr/include/c++/7/bits/stl_vector.h ****       rend() const _GLIBCXX_NOEXCEPT
 627:/usr/include/c++/7/bits/stl_vector.h ****       { return const_reverse_iterator(begin()); }
 628:/usr/include/c++/7/bits/stl_vector.h **** 
 629:/usr/include/c++/7/bits/stl_vector.h **** #if __cplusplus >= 201103L
 630:/usr/include/c++/7/bits/stl_vector.h ****       /**
 631:/usr/include/c++/7/bits/stl_vector.h ****        *  Returns a read-only (constant) iterator that points to the
 632:/usr/include/c++/7/bits/stl_vector.h ****        *  first element in the %vector.  Iteration is done in ordinary
 633:/usr/include/c++/7/bits/stl_vector.h ****        *  element order.
 634:/usr/include/c++/7/bits/stl_vector.h ****        */
 635:/usr/include/c++/7/bits/stl_vector.h ****       const_iterator
 636:/usr/include/c++/7/bits/stl_vector.h ****       cbegin() const noexcept
 637:/usr/include/c++/7/bits/stl_vector.h ****       { return const_iterator(this->_M_impl._M_start); }
 638:/usr/include/c++/7/bits/stl_vector.h **** 
 639:/usr/include/c++/7/bits/stl_vector.h ****       /**
 640:/usr/include/c++/7/bits/stl_vector.h ****        *  Returns a read-only (constant) iterator that points one past
 641:/usr/include/c++/7/bits/stl_vector.h ****        *  the last element in the %vector.  Iteration is done in
 642:/usr/include/c++/7/bits/stl_vector.h ****        *  ordinary element order.
 643:/usr/include/c++/7/bits/stl_vector.h ****        */
 644:/usr/include/c++/7/bits/stl_vector.h ****       const_iterator
 645:/usr/include/c++/7/bits/stl_vector.h ****       cend() const noexcept
 646:/usr/include/c++/7/bits/stl_vector.h ****       { return const_iterator(this->_M_impl._M_finish); }
 647:/usr/include/c++/7/bits/stl_vector.h **** 
 648:/usr/include/c++/7/bits/stl_vector.h ****       /**
 649:/usr/include/c++/7/bits/stl_vector.h ****        *  Returns a read-only (constant) reverse iterator that points
 650:/usr/include/c++/7/bits/stl_vector.h ****        *  to the last element in the %vector.  Iteration is done in
 651:/usr/include/c++/7/bits/stl_vector.h ****        *  reverse element order.
 652:/usr/include/c++/7/bits/stl_vector.h ****        */
 653:/usr/include/c++/7/bits/stl_vector.h ****       const_reverse_iterator
 654:/usr/include/c++/7/bits/stl_vector.h ****       crbegin() const noexcept
 655:/usr/include/c++/7/bits/stl_vector.h ****       { return const_reverse_iterator(end()); }
 656:/usr/include/c++/7/bits/stl_vector.h **** 
 657:/usr/include/c++/7/bits/stl_vector.h ****       /**
 658:/usr/include/c++/7/bits/stl_vector.h ****        *  Returns a read-only (constant) reverse iterator that points
 659:/usr/include/c++/7/bits/stl_vector.h ****        *  to one before the first element in the %vector.  Iteration
 660:/usr/include/c++/7/bits/stl_vector.h ****        *  is done in reverse element order.
 661:/usr/include/c++/7/bits/stl_vector.h ****        */
 662:/usr/include/c++/7/bits/stl_vector.h ****       const_reverse_iterator
 663:/usr/include/c++/7/bits/stl_vector.h ****       crend() const noexcept
 664:/usr/include/c++/7/bits/stl_vector.h ****       { return const_reverse_iterator(begin()); }
 665:/usr/include/c++/7/bits/stl_vector.h **** #endif
 666:/usr/include/c++/7/bits/stl_vector.h **** 
 667:/usr/include/c++/7/bits/stl_vector.h ****       // [23.2.4.2] capacity
 668:/usr/include/c++/7/bits/stl_vector.h ****       /**  Returns the number of elements in the %vector.  */
 669:/usr/include/c++/7/bits/stl_vector.h ****       size_type
 670:/usr/include/c++/7/bits/stl_vector.h ****       size() const _GLIBCXX_NOEXCEPT
 671:/usr/include/c++/7/bits/stl_vector.h ****       { return size_type(this->_M_impl._M_finish - this->_M_impl._M_start); }
 402              		.loc 3 671 0
 403 0051 482B0F   		subq	(%rdi), %rcx
 404 0054 4989CF   		movq	%rcx, %r15
 405 0057 4989CD   		movq	%rcx, %r13
 406 005a 49C1FD03 		sarq	$3, %r13
 407              	.LVL33:
 408              	.LBE1705:
 409              	.LBE1704:
 672:/usr/include/c++/7/bits/stl_vector.h **** 
 673:/usr/include/c++/7/bits/stl_vector.h ****       /**  Returns the size() of the largest possible %vector.  */
GAS LISTING /tmp/ccTfuPTI.s 			page 54


 674:/usr/include/c++/7/bits/stl_vector.h ****       size_type
 675:/usr/include/c++/7/bits/stl_vector.h ****       max_size() const _GLIBCXX_NOEXCEPT
 676:/usr/include/c++/7/bits/stl_vector.h ****       { return _Alloc_traits::max_size(_M_get_Tp_allocator()); }
 677:/usr/include/c++/7/bits/stl_vector.h **** 
 678:/usr/include/c++/7/bits/stl_vector.h **** #if __cplusplus >= 201103L
 679:/usr/include/c++/7/bits/stl_vector.h ****       /**
 680:/usr/include/c++/7/bits/stl_vector.h ****        *  @brief  Resizes the %vector to the specified number of elements.
 681:/usr/include/c++/7/bits/stl_vector.h ****        *  @param  __new_size  Number of elements the %vector should contain.
 682:/usr/include/c++/7/bits/stl_vector.h ****        *
 683:/usr/include/c++/7/bits/stl_vector.h ****        *  This function will %resize the %vector to the specified
 684:/usr/include/c++/7/bits/stl_vector.h ****        *  number of elements.  If the number is smaller than the
 685:/usr/include/c++/7/bits/stl_vector.h ****        *  %vector's current size the %vector is truncated, otherwise
 686:/usr/include/c++/7/bits/stl_vector.h ****        *  default constructed elements are appended.
 687:/usr/include/c++/7/bits/stl_vector.h ****        */
 688:/usr/include/c++/7/bits/stl_vector.h ****       void
 689:/usr/include/c++/7/bits/stl_vector.h ****       resize(size_type __new_size)
 690:/usr/include/c++/7/bits/stl_vector.h ****       {
 691:/usr/include/c++/7/bits/stl_vector.h **** 	if (__new_size > size())
 692:/usr/include/c++/7/bits/stl_vector.h **** 	  _M_default_append(__new_size - size());
 693:/usr/include/c++/7/bits/stl_vector.h **** 	else if (__new_size < size())
 694:/usr/include/c++/7/bits/stl_vector.h **** 	  _M_erase_at_end(this->_M_impl._M_start + __new_size);
 695:/usr/include/c++/7/bits/stl_vector.h ****       }
 696:/usr/include/c++/7/bits/stl_vector.h **** 
 697:/usr/include/c++/7/bits/stl_vector.h ****       /**
 698:/usr/include/c++/7/bits/stl_vector.h ****        *  @brief  Resizes the %vector to the specified number of elements.
 699:/usr/include/c++/7/bits/stl_vector.h ****        *  @param  __new_size  Number of elements the %vector should contain.
 700:/usr/include/c++/7/bits/stl_vector.h ****        *  @param  __x  Data with which new elements should be populated.
 701:/usr/include/c++/7/bits/stl_vector.h ****        *
 702:/usr/include/c++/7/bits/stl_vector.h ****        *  This function will %resize the %vector to the specified
 703:/usr/include/c++/7/bits/stl_vector.h ****        *  number of elements.  If the number is smaller than the
 704:/usr/include/c++/7/bits/stl_vector.h ****        *  %vector's current size the %vector is truncated, otherwise
 705:/usr/include/c++/7/bits/stl_vector.h ****        *  the %vector is extended and new elements are populated with
 706:/usr/include/c++/7/bits/stl_vector.h ****        *  given data.
 707:/usr/include/c++/7/bits/stl_vector.h ****        */
 708:/usr/include/c++/7/bits/stl_vector.h ****       void
 709:/usr/include/c++/7/bits/stl_vector.h ****       resize(size_type __new_size, const value_type& __x)
 710:/usr/include/c++/7/bits/stl_vector.h ****       {
 711:/usr/include/c++/7/bits/stl_vector.h **** 	if (__new_size > size())
 712:/usr/include/c++/7/bits/stl_vector.h **** 	  _M_fill_insert(end(), __new_size - size(), __x);
 713:/usr/include/c++/7/bits/stl_vector.h **** 	else if (__new_size < size())
 714:/usr/include/c++/7/bits/stl_vector.h **** 	  _M_erase_at_end(this->_M_impl._M_start + __new_size);
 715:/usr/include/c++/7/bits/stl_vector.h ****       }
 716:/usr/include/c++/7/bits/stl_vector.h **** #else
 717:/usr/include/c++/7/bits/stl_vector.h ****       /**
 718:/usr/include/c++/7/bits/stl_vector.h ****        *  @brief  Resizes the %vector to the specified number of elements.
 719:/usr/include/c++/7/bits/stl_vector.h ****        *  @param  __new_size  Number of elements the %vector should contain.
 720:/usr/include/c++/7/bits/stl_vector.h ****        *  @param  __x  Data with which new elements should be populated.
 721:/usr/include/c++/7/bits/stl_vector.h ****        *
 722:/usr/include/c++/7/bits/stl_vector.h ****        *  This function will %resize the %vector to the specified
 723:/usr/include/c++/7/bits/stl_vector.h ****        *  number of elements.  If the number is smaller than the
 724:/usr/include/c++/7/bits/stl_vector.h ****        *  %vector's current size the %vector is truncated, otherwise
 725:/usr/include/c++/7/bits/stl_vector.h ****        *  the %vector is extended and new elements are populated with
 726:/usr/include/c++/7/bits/stl_vector.h ****        *  given data.
 727:/usr/include/c++/7/bits/stl_vector.h ****        */
 728:/usr/include/c++/7/bits/stl_vector.h ****       void
 729:/usr/include/c++/7/bits/stl_vector.h ****       resize(size_type __new_size, value_type __x = value_type())
 730:/usr/include/c++/7/bits/stl_vector.h ****       {
GAS LISTING /tmp/ccTfuPTI.s 			page 55


 731:/usr/include/c++/7/bits/stl_vector.h **** 	if (__new_size > size())
 732:/usr/include/c++/7/bits/stl_vector.h **** 	  _M_fill_insert(end(), __new_size - size(), __x);
 733:/usr/include/c++/7/bits/stl_vector.h **** 	else if (__new_size < size())
 734:/usr/include/c++/7/bits/stl_vector.h **** 	  _M_erase_at_end(this->_M_impl._M_start + __new_size);
 735:/usr/include/c++/7/bits/stl_vector.h ****       }
 736:/usr/include/c++/7/bits/stl_vector.h **** #endif
 737:/usr/include/c++/7/bits/stl_vector.h **** 
 738:/usr/include/c++/7/bits/stl_vector.h **** #if __cplusplus >= 201103L
 739:/usr/include/c++/7/bits/stl_vector.h ****       /**  A non-binding request to reduce capacity() to size().  */
 740:/usr/include/c++/7/bits/stl_vector.h ****       void
 741:/usr/include/c++/7/bits/stl_vector.h ****       shrink_to_fit()
 742:/usr/include/c++/7/bits/stl_vector.h ****       { _M_shrink_to_fit(); }
 743:/usr/include/c++/7/bits/stl_vector.h **** #endif
 744:/usr/include/c++/7/bits/stl_vector.h **** 
 745:/usr/include/c++/7/bits/stl_vector.h ****       /**
 746:/usr/include/c++/7/bits/stl_vector.h ****        *  Returns the total number of elements that the %vector can
 747:/usr/include/c++/7/bits/stl_vector.h ****        *  hold before needing to allocate more memory.
 748:/usr/include/c++/7/bits/stl_vector.h ****        */
 749:/usr/include/c++/7/bits/stl_vector.h ****       size_type
 750:/usr/include/c++/7/bits/stl_vector.h ****       capacity() const _GLIBCXX_NOEXCEPT
 751:/usr/include/c++/7/bits/stl_vector.h ****       { return size_type(this->_M_impl._M_end_of_storage
 752:/usr/include/c++/7/bits/stl_vector.h **** 			 - this->_M_impl._M_start); }
 753:/usr/include/c++/7/bits/stl_vector.h **** 
 754:/usr/include/c++/7/bits/stl_vector.h ****       /**
 755:/usr/include/c++/7/bits/stl_vector.h ****        *  Returns true if the %vector is empty.  (Thus begin() would
 756:/usr/include/c++/7/bits/stl_vector.h ****        *  equal end().)
 757:/usr/include/c++/7/bits/stl_vector.h ****        */
 758:/usr/include/c++/7/bits/stl_vector.h ****       bool
 759:/usr/include/c++/7/bits/stl_vector.h ****       empty() const _GLIBCXX_NOEXCEPT
 760:/usr/include/c++/7/bits/stl_vector.h ****       { return begin() == end(); }
 761:/usr/include/c++/7/bits/stl_vector.h **** 
 762:/usr/include/c++/7/bits/stl_vector.h ****       /**
 763:/usr/include/c++/7/bits/stl_vector.h ****        *  @brief  Attempt to preallocate enough memory for specified number of
 764:/usr/include/c++/7/bits/stl_vector.h ****        *          elements.
 765:/usr/include/c++/7/bits/stl_vector.h ****        *  @param  __n  Number of elements required.
 766:/usr/include/c++/7/bits/stl_vector.h ****        *  @throw  std::length_error  If @a n exceeds @c max_size().
 767:/usr/include/c++/7/bits/stl_vector.h ****        *
 768:/usr/include/c++/7/bits/stl_vector.h ****        *  This function attempts to reserve enough memory for the
 769:/usr/include/c++/7/bits/stl_vector.h ****        *  %vector to hold the specified number of elements.  If the
 770:/usr/include/c++/7/bits/stl_vector.h ****        *  number requested is more than max_size(), length_error is
 771:/usr/include/c++/7/bits/stl_vector.h ****        *  thrown.
 772:/usr/include/c++/7/bits/stl_vector.h ****        *
 773:/usr/include/c++/7/bits/stl_vector.h ****        *  The advantage of this function is that if optimal code is a
 774:/usr/include/c++/7/bits/stl_vector.h ****        *  necessity and the user can determine the number of elements
 775:/usr/include/c++/7/bits/stl_vector.h ****        *  that will be required, the user can reserve the memory in
 776:/usr/include/c++/7/bits/stl_vector.h ****        *  %advance, and thus prevent a possible reallocation of memory
 777:/usr/include/c++/7/bits/stl_vector.h ****        *  and copying of %vector data.
 778:/usr/include/c++/7/bits/stl_vector.h ****        */
 779:/usr/include/c++/7/bits/stl_vector.h ****       void
 780:/usr/include/c++/7/bits/stl_vector.h ****       reserve(size_type __n);
 781:/usr/include/c++/7/bits/stl_vector.h **** 
 782:/usr/include/c++/7/bits/stl_vector.h ****       // element access
 783:/usr/include/c++/7/bits/stl_vector.h ****       /**
 784:/usr/include/c++/7/bits/stl_vector.h ****        *  @brief  Subscript access to the data contained in the %vector.
 785:/usr/include/c++/7/bits/stl_vector.h ****        *  @param __n The index of the element for which data should be
 786:/usr/include/c++/7/bits/stl_vector.h ****        *  accessed.
 787:/usr/include/c++/7/bits/stl_vector.h ****        *  @return  Read/write reference to data.
GAS LISTING /tmp/ccTfuPTI.s 			page 56


 788:/usr/include/c++/7/bits/stl_vector.h ****        *
 789:/usr/include/c++/7/bits/stl_vector.h ****        *  This operator allows for easy, array-style, data access.
 790:/usr/include/c++/7/bits/stl_vector.h ****        *  Note that data access with this operator is unchecked and
 791:/usr/include/c++/7/bits/stl_vector.h ****        *  out_of_range lookups are not defined. (For checked lookups
 792:/usr/include/c++/7/bits/stl_vector.h ****        *  see at().)
 793:/usr/include/c++/7/bits/stl_vector.h ****        */
 794:/usr/include/c++/7/bits/stl_vector.h ****       reference
 795:/usr/include/c++/7/bits/stl_vector.h ****       operator[](size_type __n) _GLIBCXX_NOEXCEPT
 796:/usr/include/c++/7/bits/stl_vector.h ****       {
 797:/usr/include/c++/7/bits/stl_vector.h **** 	__glibcxx_requires_subscript(__n);
 798:/usr/include/c++/7/bits/stl_vector.h **** 	return *(this->_M_impl._M_start + __n);
 799:/usr/include/c++/7/bits/stl_vector.h ****       }
 800:/usr/include/c++/7/bits/stl_vector.h **** 
 801:/usr/include/c++/7/bits/stl_vector.h ****       /**
 802:/usr/include/c++/7/bits/stl_vector.h ****        *  @brief  Subscript access to the data contained in the %vector.
 803:/usr/include/c++/7/bits/stl_vector.h ****        *  @param __n The index of the element for which data should be
 804:/usr/include/c++/7/bits/stl_vector.h ****        *  accessed.
 805:/usr/include/c++/7/bits/stl_vector.h ****        *  @return  Read-only (constant) reference to data.
 806:/usr/include/c++/7/bits/stl_vector.h ****        *
 807:/usr/include/c++/7/bits/stl_vector.h ****        *  This operator allows for easy, array-style, data access.
 808:/usr/include/c++/7/bits/stl_vector.h ****        *  Note that data access with this operator is unchecked and
 809:/usr/include/c++/7/bits/stl_vector.h ****        *  out_of_range lookups are not defined. (For checked lookups
 810:/usr/include/c++/7/bits/stl_vector.h ****        *  see at().)
 811:/usr/include/c++/7/bits/stl_vector.h ****        */
 812:/usr/include/c++/7/bits/stl_vector.h ****       const_reference
 813:/usr/include/c++/7/bits/stl_vector.h ****       operator[](size_type __n) const _GLIBCXX_NOEXCEPT
 814:/usr/include/c++/7/bits/stl_vector.h ****       {
 815:/usr/include/c++/7/bits/stl_vector.h **** 	__glibcxx_requires_subscript(__n);
 816:/usr/include/c++/7/bits/stl_vector.h **** 	return *(this->_M_impl._M_start + __n);
 817:/usr/include/c++/7/bits/stl_vector.h ****       }
 818:/usr/include/c++/7/bits/stl_vector.h **** 
 819:/usr/include/c++/7/bits/stl_vector.h ****     protected:
 820:/usr/include/c++/7/bits/stl_vector.h ****       /// Safety check used only from at().
 821:/usr/include/c++/7/bits/stl_vector.h ****       void
 822:/usr/include/c++/7/bits/stl_vector.h ****       _M_range_check(size_type __n) const
 823:/usr/include/c++/7/bits/stl_vector.h ****       {
 824:/usr/include/c++/7/bits/stl_vector.h **** 	if (__n >= this->size())
 825:/usr/include/c++/7/bits/stl_vector.h **** 	  __throw_out_of_range_fmt(__N("vector::_M_range_check: __n "
 826:/usr/include/c++/7/bits/stl_vector.h **** 				       "(which is %zu) >= this->size() "
 827:/usr/include/c++/7/bits/stl_vector.h **** 				       "(which is %zu)"),
 828:/usr/include/c++/7/bits/stl_vector.h **** 				   __n, this->size());
 829:/usr/include/c++/7/bits/stl_vector.h ****       }
 830:/usr/include/c++/7/bits/stl_vector.h **** 
 831:/usr/include/c++/7/bits/stl_vector.h ****     public:
 832:/usr/include/c++/7/bits/stl_vector.h ****       /**
 833:/usr/include/c++/7/bits/stl_vector.h ****        *  @brief  Provides access to the data contained in the %vector.
 834:/usr/include/c++/7/bits/stl_vector.h ****        *  @param __n The index of the element for which data should be
 835:/usr/include/c++/7/bits/stl_vector.h ****        *  accessed.
 836:/usr/include/c++/7/bits/stl_vector.h ****        *  @return  Read/write reference to data.
 837:/usr/include/c++/7/bits/stl_vector.h ****        *  @throw  std::out_of_range  If @a __n is an invalid index.
 838:/usr/include/c++/7/bits/stl_vector.h ****        *
 839:/usr/include/c++/7/bits/stl_vector.h ****        *  This function provides for safer data access.  The parameter
 840:/usr/include/c++/7/bits/stl_vector.h ****        *  is first checked that it is in the range of the vector.  The
 841:/usr/include/c++/7/bits/stl_vector.h ****        *  function throws out_of_range if the check fails.
 842:/usr/include/c++/7/bits/stl_vector.h ****        */
 843:/usr/include/c++/7/bits/stl_vector.h ****       reference
 844:/usr/include/c++/7/bits/stl_vector.h ****       at(size_type __n)
GAS LISTING /tmp/ccTfuPTI.s 			page 57


 845:/usr/include/c++/7/bits/stl_vector.h ****       {
 846:/usr/include/c++/7/bits/stl_vector.h **** 	_M_range_check(__n);
 847:/usr/include/c++/7/bits/stl_vector.h **** 	return (*this)[__n];
 848:/usr/include/c++/7/bits/stl_vector.h ****       }
 849:/usr/include/c++/7/bits/stl_vector.h **** 
 850:/usr/include/c++/7/bits/stl_vector.h ****       /**
 851:/usr/include/c++/7/bits/stl_vector.h ****        *  @brief  Provides access to the data contained in the %vector.
 852:/usr/include/c++/7/bits/stl_vector.h ****        *  @param __n The index of the element for which data should be
 853:/usr/include/c++/7/bits/stl_vector.h ****        *  accessed.
 854:/usr/include/c++/7/bits/stl_vector.h ****        *  @return  Read-only (constant) reference to data.
 855:/usr/include/c++/7/bits/stl_vector.h ****        *  @throw  std::out_of_range  If @a __n is an invalid index.
 856:/usr/include/c++/7/bits/stl_vector.h ****        *
 857:/usr/include/c++/7/bits/stl_vector.h ****        *  This function provides for safer data access.  The parameter
 858:/usr/include/c++/7/bits/stl_vector.h ****        *  is first checked that it is in the range of the vector.  The
 859:/usr/include/c++/7/bits/stl_vector.h ****        *  function throws out_of_range if the check fails.
 860:/usr/include/c++/7/bits/stl_vector.h ****        */
 861:/usr/include/c++/7/bits/stl_vector.h ****       const_reference
 862:/usr/include/c++/7/bits/stl_vector.h ****       at(size_type __n) const
 863:/usr/include/c++/7/bits/stl_vector.h ****       {
 864:/usr/include/c++/7/bits/stl_vector.h **** 	_M_range_check(__n);
 865:/usr/include/c++/7/bits/stl_vector.h **** 	return (*this)[__n];
 866:/usr/include/c++/7/bits/stl_vector.h ****       }
 867:/usr/include/c++/7/bits/stl_vector.h **** 
 868:/usr/include/c++/7/bits/stl_vector.h ****       /**
